(dp0
S'inning'
p1
(lp2
S'inking'
p3
asS'brevet'
p4
(lp5
sS'seated'
p6
(lp7
S'heated'
p8
aS'sealed'
p9
aS'seamed'
p10
aS'seared'
p11
aS'skated'
p12
aS'slated'
p13
aS'stated'
p14
asS'pardon'
p15
(lp16
S'parson'
p17
asS'hordes'
p18
(lp19
S'horses'
p20
asS'whoops'
p21
(lp22
sS'vermin'
p23
(lp24
sS'yellow'
p25
(lp26
S'bellow'
p27
aS'fellow'
p28
aS'mellow'
p29
asS'reboot'
p30
(lp31
sS'prefix'
p32
(lp33
sS'looped'
p34
(lp35
S'cooped'
p36
aS'looked'
p37
aS'loomed'
p38
aS'loosed'
p39
aS'looted'
p40
asS'thirst'
p41
(lp42
sS'hating'
p43
(lp44
S'dating'
p45
aS'eating'
p46
aS'gating'
p47
aS'having'
p48
aS'haying'
p49
aS'mating'
p50
aS'rating'
p51
aS'sating'
p52
asS'todays'
p53
(lp54
sS'oldest'
p55
(lp56
S'eldest'
p57
aS'oddest'
p58
asS'weakly'
p59
(lp60
S'weekly'
p61
asS'payoff'
p62
(lp63
S'layoff'
p64
asS'sevens'
p65
(lp66
S'severs'
p67
asS'muzzle'
p68
(lp69
S'nuzzle'
p70
aS'puzzle'
p71
asS'fronts'
p72
(lp73
S'frosts'
p74
asS'sagely'
p75
(lp76
S'safely'
p77
aS'sanely'
p78
asS'clasps'
p79
(lp80
S'clamps'
p81
asS'crises'
p82
(lp83
S'arises'
p84
aS'crimes'
p85
aS'crisis'
p86
asS'waxers'
p87
(lp88
S'wafers'
p89
aS'wagers'
p90
aS'wavers'
p91
asS'sunlit'
p92
(lp93
sS'tickle'
p94
(lp95
S'fickle'
p96
aS'pickle'
p97
aS'sickle'
p98
aS'tackle'
p99
aS'tinkle'
p100
asS'outwit'
p101
(lp102
S'outfit'
p103
asS'opener'
p104
(lp105
S'opened'
p106
asS'quotas'
p107
(lp108
S'quotes'
p109
asS'dumbly'
p110
(lp111
S'humbly'
p112
aS'numbly'
p113
asS'usably'
p114
(lp115
S'usable'
p116
asS'frowns'
p117
(lp118
S'browns'
p119
aS'crowns'
p120
aS'drowns'
p121
asS'swivel'
p122
(lp123
S'snivel'
p124
asS'struck'
p125
(lp126
sS'rescue'
p127
(lp128
sS'incurs'
p129
(lp130
sS'retail'
p131
(lp132
S'detail'
p133
aS'retain'
p134
asS'barium'
p135
(lp136
sS'rashly'
p137
(lp138
sS'aurora'
p139
(lp140
sS'oceans'
p141
(lp142
sS'wrongs'
p143
(lp144
S'prongs'
p145
aS'wrings'
p146
asS'warble'
p147
(lp148
S'garble'
p149
aS'marble'
p150
asS'helmet'
p151
(lp152
sS'befoul'
p153
(lp154
sS'seldom'
p155
(lp156
sS'radium'
p157
(lp158
S'radius'
p159
asS'govern'
p160
(lp161
sS'affect'
p162
(lp163
S'effect'
p164
asS'solver'
p165
(lp166
S'salver'
p167
aS'silver'
p168
aS'solder'
p169
aS'solved'
p170
aS'solves'
p171
asS'anemic'
p172
(lp173
S'anemia'
p174
aS'anomic'
p175
asS'chapel'
p176
(lp177
sS'owning'
p178
(lp179
S'awning'
p180
asS'basics'
p181
(lp182
S'basins'
p183
asS'baking'
p184
(lp185
S'baring'
p186
aS'basing'
p187
aS'baying'
p188
aS'biking'
p189
aS'caking'
p190
aS'faking'
p191
aS'making'
p192
aS'raking'
p193
aS'taking'
p194
aS'waking'
p195
asS'stadia'
p196
(lp197
sS'parrot'
p198
(lp199
S'carrot'
p200
asS'unrest'
p201
(lp202
sS'skills'
p203
(lp204
S'skulls'
p205
aS'spills'
p206
aS'stills'
p207
asS'plural'
p208
(lp209
sS'graced'
p210
(lp211
S'braced'
p212
aS'graces'
p213
aS'graded'
p214
aS'grated'
p215
aS'grayed'
p216
aS'grazed'
p217
aS'traced'
p218
asS'sculpt'
p219
(lp220
sS'straws'
p221
(lp222
S'straps'
p223
aS'strays'
p224
aS'strews'
p225
asS'mortar'
p226
(lp227
S'mortal'
p228
asS'piling'
p229
(lp230
S'ailing'
p231
aS'filing'
p232
aS'oiling'
p233
aS'paling'
p234
aS'pining'
p235
aS'piping'
p236
aS'poling'
p237
aS'tiling'
p238
asS'vented'
p239
(lp240
S'dented'
p241
aS'rented'
p242
aS'tented'
p243
aS'vested'
p244
asS'vector'
p245
(lp246
S'rector'
p247
aS'sector'
p248
aS'victor'
p249
asS'crotch'
p250
(lp251
S'crouch'
p252
aS'crutch'
p253
asS'relics'
p254
(lp255
S'relies'
p256
asS'timely'
p257
(lp258
S'tamely'
p259
asS'waffle'
p260
(lp261
S'baffle'
p262
asS'hedged'
p263
(lp264
S'hedges'
p265
aS'wedged'
p266
asg213
(lp267
S'braces'
p268
ag210
aS'grades'
p269
aS'grapes'
p270
aS'grates'
p271
aS'traces'
p272
asS'forged'
p273
(lp274
S'fogged'
p275
aS'forced'
p276
aS'forger'
p277
aS'forges'
p278
aS'forget'
p279
aS'forked'
p280
aS'formed'
p281
asS'idlest'
p282
(lp283
sS'parted'
p284
(lp285
S'carted'
p286
aS'darted'
p287
aS'panted'
p288
aS'parked'
p289
aS'parsed'
p290
aS'parter'
p291
aS'pasted'
p292
aS'ported'
p293
asS'glassy'
p294
(lp295
S'classy'
p296
aS'glossy'
p297
aS'grassy'
p298
asS'simile'
p299
(lp300
S'simple'
p301
asS'dogmas'
p302
(lp303
sS'almond'
p304
(lp305
sS'direct'
p306
(lp307
sS'millet'
p308
(lp309
S'billet'
p310
aS'mallet'
p311
aS'milled'
p312
aS'miller'
p313
asS'leases'
p314
(lp315
S'ceases'
p316
aS'leased'
p317
aS'leaves'
p318
aS'lenses'
p319
aS'teases'
p320
asS'louder'
p321
(lp322
S'loader'
p323
asg291
(lp324
S'barter'
p325
aS'carter'
p326
aS'darter'
p327
aS'garter'
p328
aS'parker'
p329
aS'parser'
p330
ag284
aS'patter'
p331
aS'porter'
p332
asS'winder'
p333
(lp334
S'binder'
p335
aS'cinder'
p336
aS'finder'
p337
aS'hinder'
p338
aS'kinder'
p339
aS'wander'
p340
aS'wilder'
p341
aS'winded'
p342
aS'winker'
p343
aS'winner'
p344
aS'winter'
p345
aS'wonder'
p346
asS'summit'
p347
(lp348
S'submit'
p349
asS'sprung'
p350
(lp351
S'sprang'
p352
aS'spring'
p353
aS'strung'
p354
asS'sailed'
p355
(lp356
S'failed'
p357
aS'hailed'
p358
aS'jailed'
p359
aS'mailed'
p360
aS'nailed'
p361
aS'railed'
p362
aS'smiled'
p363
aS'soiled'
p364
aS'tailed'
p365
aS'wailed'
p366
asS'cactus'
p367
(lp368
sS'phoned'
p369
(lp370
S'phones'
p371
asg312
(lp372
S'billed'
p373
aS'filled'
p374
aS'killed'
p375
aS'milked'
p376
ag313
ag308
aS'misled'
p377
aS'tilled'
p378
aS'willed'
p379
asS'blouse'
p380
(lp381
sS'lesser'
p382
(lp383
S'lessen'
p384
aS'lessor'
p385
asS'abided'
p386
(lp387
S'abides'
p388
asS'rasher'
p389
(lp390
S'casher'
p391
aS'dasher'
p392
aS'hasher'
p393
aS'raster'
p394
aS'rather'
p395
aS'rusher'
p396
aS'washer'
p397
asS'sadder'
p398
(lp399
S'ladder'
p400
aS'madder'
p401
aS'sadden'
p402
aS'sander'
p403
asS'snares'
p404
(lp405
S'scares'
p406
aS'shares'
p407
aS'snakes'
p408
aS'snared'
p409
aS'snores'
p410
aS'spares'
p411
aS'stares'
p412
asS'panama'
p413
(lp414
S'pajama'
p415
asS'beaten'
p416
(lp417
S'beater'
p418
asS'lizard'
p419
(lp420
S'wizard'
p421
asS'griped'
p422
(lp423
S'grimed'
p424
aS'gripes'
p425
aS'groped'
p426
asS'yonder'
p427
(lp428
S'bonder'
p429
aS'fonder'
p430
aS'ponder'
p431
ag346
asS'pimple'
p432
(lp433
S'dimple'
p434
ag301
asS'lights'
p435
(lp436
S'bights'
p437
aS'eights'
p438
aS'fights'
p439
aS'nights'
p440
aS'rights'
p441
aS'sights'
p442
asS'melted'
p443
(lp444
S'belted'
p445
aS'malted'
p446
asg388
(lp447
g386
aS'abodes'
p448
asS'speedy'
p449
(lp450
S'speeds'
p451
asS'fossil'
p452
(lp453
sg418
(lp454
S'beaker'
p455
aS'beamer'
p456
aS'beaner'
p457
aS'bearer'
p458
ag416
aS'beaver'
p459
aS'better'
p460
aS'boater'
p461
aS'heater'
p462
aS'neater'
p463
asS'fetish'
p464
(lp465
sS'causer'
p466
(lp467
S'caused'
p468
aS'causes'
p469
asS'poises'
p470
(lp471
S'noises'
p472
aS'poised'
p473
asS'shocks'
p474
(lp475
S'chocks'
p476
aS'shacks'
p477
aS'smocks'
p478
aS'stocks'
p479
asS'scours'
p480
(lp481
S'scouts'
p482
asS'crunch'
p483
(lp484
S'brunch'
p485
ag253
asS'debugs'
p486
(lp487
sS'inline'
p488
(lp489
S'online'
p490
asg252
(lp491
g250
asS'orgies'
p492
(lp493
sS'nugget'
p494
(lp495
sS'equals'
p496
(lp497
sS'revive'
p498
(lp499
S'relive'
p500
aS'revile'
p501
aS'revise'
p502
asS'cadres'
p503
(lp504
sS'opting'
p505
(lp506
S'outing'
p507
asS'studio'
p508
(lp509
sS'kicker'
p510
(lp511
S'bicker'
p512
aS'kicked'
p513
aS'nicker'
p514
aS'picker'
p515
aS'sicker'
p516
aS'ticker'
p517
aS'wicker'
p518
asS'active'
p519
(lp520
sg412
(lp521
g406
ag407
ag404
ag411
aS'stages'
p522
aS'stakes'
p523
aS'stared'
p524
aS'starer'
p525
aS'starts'
p526
aS'states'
p527
aS'staves'
p528
aS'stores'
p529
asg525
(lp530
S'sharer'
p531
aS'sparer'
p532
aS'stager'
p533
ag524
ag412
asS'shriek'
p534
(lp535
S'shrink'
p536
asS'arroyo'
p537
(lp538
sS'digits'
p539
(lp540
sS'apical'
p541
(lp542
sS'strewn'
p543
(lp544
g225
asS'aimers'
p545
(lp546
S'airers'
p547
aS'armers'
p548
aS'timers'
p549
asg318
(lp550
S'heaves'
p551
ag314
aS'leaved'
p552
aS'leaven'
p553
aS'loaves'
p554
aS'weaves'
p555
asS'cupful'
p556
(lp557
sS'mantis'
p558
(lp559
sS'dative'
p560
(lp561
S'native'
p562
asS'cogent'
p563
(lp564
sS'mentor'
p565
(lp566
sg553
(lp567
S'heaven'
p568
aS'leaden'
p569
ag552
ag318
asS'bunker'
p570
(lp571
S'banker'
p572
aS'bunter'
p573
aS'junker'
p574
asS'russet'
p575
(lp576
sS'otters'
p577
(lp578
S'others'
p579
aS'utters'
p580
asS'menial'
p581
(lp582
S'denial'
p583
aS'genial'
p584
aS'mental'
p585
aS'venial'
p586
asg552
(lp587
S'heaved'
p588
aS'leaded'
p589
aS'leafed'
p590
aS'leaked'
p591
aS'leaned'
p592
aS'leaped'
p593
ag317
ag553
ag318
asS'astute'
p594
(lp595
sS'shoved'
p596
(lp597
S'shaved'
p598
aS'shovel'
p599
aS'shoves'
p600
aS'showed'
p601
asS'golden'
p602
(lp603
S'holden'
p604
asS'prints'
p605
(lp606
S'paints'
p607
aS'points'
p608
asS'heeled'
p609
(lp610
S'healed'
p611
aS'heeded'
p612
aS'keeled'
p613
aS'peeled'
p614
aS'reeled'
p615
asS'bussed'
p616
(lp617
S'bossed'
p618
aS'busied'
p619
aS'busses'
p620
aS'busted'
p621
asS'divide'
p622
(lp623
S'divine'
p624
asS'slicer'
p625
(lp626
S'sliced'
p627
aS'slices'
p628
aS'slider'
p629
aS'sliver'
p630
asg628
(lp631
g627
ag625
aS'slicks'
p632
aS'slides'
p633
aS'spices'
p634
asS'ground'
p635
(lp636
S'around'
p637
asS'spooky'
p638
(lp639
sS'besets'
p640
(lp641
S'begets'
p642
aS'berets'
p643
aS'resets'
p644
asS'uproot'
p645
(lp646
sS'lodges'
p647
(lp648
S'ledges'
p649
aS'lodged'
p650
aS'lodger'
p651
asS'eyeful'
p652
(lp653
sS'highly'
p654
(lp655
sS'county'
p656
(lp657
S'bounty'
p658
aS'counts'
p659
asS'marina'
p660
(lp661
S'farina'
p662
aS'marine'
p663
asS'cheats'
p664
(lp665
S'chests'
p666
asg620
(lp667
S'basses'
p668
aS'bosses'
p669
aS'bushes'
p670
ag616
asS'guests'
p671
(lp672
S'quests'
p673
asS'anions'
p674
(lp675
S'onions'
p676
aS'unions'
p677
asS'costly'
p678
(lp679
S'mostly'
p680
asg659
(lp681
g656
aS'courts'
p682
aS'founts'
p683
aS'mounts'
p684
asS'forums'
p685
(lp686
sS'slaver'
p687
(lp688
S'slater'
p689
aS'slaves'
p690
aS'slayer'
p691
ag630
asS'swings'
p692
(lp693
S'slings'
p694
aS'stings'
p695
asS'cawing'
p696
(lp697
S'caging'
p698
ag190
aS'caring'
p699
aS'casing'
p700
aS'caving'
p701
aS'cowing'
p702
aS'pawing'
p703
aS'sawing'
p704
asS'browse'
p705
(lp706
sS'alpine'
p707
(lp708
sS'played'
p709
(lp710
S'placed'
p711
aS'planed'
p712
aS'plated'
p713
aS'player'
p714
aS'prayed'
p715
asS'exhort'
p716
(lp717
S'export'
p718
aS'extort'
p719
asS'unroll'
p720
(lp721
S'enroll'
p722
asS'insult'
p723
(lp724
sS'pamper'
p725
(lp726
S'camper'
p727
aS'damper'
p728
aS'hamper'
p729
aS'pauper'
p730
aS'tamper'
p731
asS'noting'
p732
(lp733
S'doting'
p734
aS'nosing'
p735
aS'voting'
p736
asS'mystic'
p737
(lp738
sS'strike'
p739
(lp740
S'stride'
p741
aS'strife'
p742
aS'stripe'
p743
aS'strive'
p744
aS'stroke'
p745
asS'pistil'
p746
(lp747
S'pistol'
p748
asS'exacts'
p749
(lp750
S'enacts'
p751
aS'exalts'
p752
asS'rankle'
p753
(lp754
S'rankly'
p755
asS'boomed'
p756
(lp757
S'booked'
p758
aS'booted'
p759
aS'doomed'
p760
ag38
aS'roomed'
p761
asS'zeroed'
p762
(lp763
S'zeroes'
p764
asS'tenors'
p765
(lp766
sS'sinews'
p767
(lp768
S'sinewy'
p769
asS'brings'
p770
(lp771
S'beings'
p772
ag146
asS'expose'
p773
(lp774
sS'gashes'
p775
(lp776
S'bashes'
p777
aS'cashes'
p778
aS'dashes'
p779
aS'gushes'
p780
aS'hashes'
p781
aS'lashes'
p782
aS'mashes'
p783
aS'washes'
p784
asS'mutant'
p785
(lp786
sS'unlike'
p787
(lp788
sS'brushy'
p789
(lp790
sS'pilers'
p791
(lp792
S'oilers'
p793
aS'pipers'
p794
asS'frenzy'
p795
(lp796
sS'smelts'
p797
(lp798
S'smells'
p799
asS'horrid'
p800
(lp801
S'torrid'
p802
asS'biotic'
p803
(lp804
sS'indent'
p805
(lp806
S'intent'
p807
aS'invent'
p808
asS'tariff'
p809
(lp810
sS'origin'
p811
(lp812
sS'prolix'
p813
(lp814
sS'locked'
p815
(lp816
S'cocked'
p817
aS'docked'
p818
aS'lacked'
p819
aS'licked'
p820
aS'locker'
p821
ag37
aS'lucked'
p822
aS'mocked'
p823
aS'rocked'
p824
aS'socked'
p825
asS'trader'
p826
(lp827
S'grader'
p828
aS'tracer'
p829
aS'traded'
p830
aS'trades'
p831
asg714
(lp832
S'placer'
p833
aS'planer'
p834
ag709
aS'prayer'
p835
ag691
asg424
(lp836
g422
aS'primed'
p837
asS'somber'
p838
(lp839
S'bomber'
p840
aS'comber'
p841
asS'grovel'
p842
(lp843
S'gravel'
p844
aS'groves'
p845
asS'cuddly'
p846
(lp847
S'cuddle'
p848
asS'movies'
p849
(lp850
sg845
(lp851
S'droves'
p852
aS'gloves'
p853
aS'gropes'
p854
ag842
aS'proves'
p855
asg848
(lp856
S'coddle'
p857
ag846
aS'curdle'
p858
aS'huddle'
p859
aS'muddle'
p860
aS'puddle'
p861
asS'squash'
p862
(lp863
sg593
(lp864
S'heaped'
p865
ag589
ag590
ag591
ag592
ag317
ag552
aS'reaped'
p866
asg463
(lp867
g418
ag462
aS'nearer'
p868
aS'nester'
p869
aS'neuter'
p870
asS'caiman'
p871
(lp872
sS'rework'
p873
(lp874
sS'dither'
p875
(lp876
S'either'
p877
aS'hither'
p878
aS'tither'
p879
aS'wither'
p880
asS'phrase'
p881
(lp882
sS'defile'
p883
(lp884
S'define'
p885
asS'loosen'
p886
(lp887
g39
aS'looser'
p888
aS'looses'
p889
asS'quiver'
p890
(lp891
S'quaver'
p892
asS'estate'
p893
(lp894
sS'joyous'
p895
(lp896
sg39
(lp897
g37
ag38
ag34
ag886
ag888
ag889
ag40
asS'unjust'
p898
(lp899
sS'climax'
p900
(lp901
sS'pitied'
p902
(lp903
S'pithed'
p904
aS'pitier'
p905
aS'pities'
p906
aS'pitted'
p907
asS'assent'
p908
(lp909
S'absent'
p910
aS'ascent'
p911
aS'assert'
p912
asS'packet'
p913
(lp914
S'jacket'
p915
aS'packed'
p916
aS'packer'
p917
aS'picket'
p918
aS'pocket'
p919
aS'racket'
p920
asS'impair'
p921
(lp922
sS'mayhem'
p923
(lp924
sS'malign'
p925
(lp926
sS'minted'
p927
(lp928
S'hinted'
p929
aS'minced'
p930
aS'minded'
p931
aS'minter'
p932
aS'misted'
p933
aS'tinted'
p934
asS'plaits'
p935
(lp936
S'plaids'
p937
aS'plains'
p938
aS'plants'
p939
asS'savers'
p940
(lp941
S'sabers'
p942
aS'savors'
p943
aS'sayers'
p944
ag67
ag91
asS'betide'
p945
(lp946
S'beside'
p947
asS'vainly'
p948
(lp949
S'mainly'
p950
asS'honest'
p951
(lp952
sS'arenas'
p953
(lp954
sg888
(lp955
S'looker'
p956
ag39
ag886
ag889
aS'looter'
p957
asS'loathe'
p958
(lp959
sS'poorly'
p960
(lp961
sS'sneers'
p962
(lp963
S'steers'
p964
asS'pithes'
p965
(lp966
g904
ag906
aS'tithes'
p967
asS'pastel'
p968
(lp969
g292
aS'pastes'
p970
asg741
(lp971
g742
ag739
ag743
ag744
aS'strode'
p972
asg434
(lp973
g432
ag301
asS'travel'
p974
(lp975
g844
asS'drying'
p976
(lp977
S'crying'
p978
aS'prying'
p979
aS'trying'
p980
asS'sodomy'
p981
(lp982
sS'damage'
p983
(lp984
sS'braids'
p985
(lp986
S'brains'
p987
aS'brands'
p988
asS'faults'
p989
(lp990
S'faulty'
p991
aS'vaults'
p992
asS'reeler'
p993
(lp994
S'feeler'
p995
aS'reefer'
p996
ag615
asS'morbid'
p997
(lp998
S'forbid'
p999
asS'aching'
p1000
(lp1001
S'acting'
p1002
asS'rewind'
p1003
(lp1004
S'rebind'
p1005
aS'remind'
p1006
asS'answer'
p1007
(lp1008
sg991
(lp1009
g989
asS'ticked'
p1010
(lp1011
g513
ag820
aS'nicked'
p1012
aS'picked'
p1013
aS'tacked'
p1014
ag517
aS'ticket'
p1015
aS'tucked'
p1016
aS'wicked'
p1017
asS'gamble'
p1018
(lp1019
g149
aS'ramble'
p1020
asS'gaming'
p1021
(lp1022
S'gaging'
p1023
aS'gaping'
p1024
ag47
aS'gazing'
p1025
aS'laming'
p1026
aS'naming'
p1027
aS'taming'
p1028
asS'costed'
p1029
(lp1030
S'coated'
p1031
aS'hosted'
p1032
aS'posted'
p1033
asS'blanks'
p1034
(lp1035
S'blacks'
p1036
aS'blinks'
p1037
aS'flanks'
p1038
aS'planks'
p1039
asS'wading'
p1040
(lp1041
S'fading'
p1042
aS'lading'
p1043
aS'waging'
p1044
ag195
aS'waning'
p1045
aS'waving'
p1046
aS'waxing'
p1047
asS'beauty'
p1048
(lp1049
sS'wooing'
p1050
(lp1051
S'cooing'
p1052
asS'twirls'
p1053
(lp1054
sS'coined'
p1055
(lp1056
S'coiled'
p1057
aS'coiner'
p1058
aS'joined'
p1059
asS'overly'
p1060
(lp1061
sS'shores'
p1062
(lp1063
S'chores'
p1064
aS'scores'
p1065
ag407
aS'shorts'
p1066
ag600
ag410
aS'spores'
p1067
ag529
aS'whores'
p1068
asS'possum'
p1069
(lp1070
sS'modest'
p1071
(lp1072
S'molest'
p1073
asg1044
(lp1074
g698
ag1023
aS'paging'
p1075
aS'raging'
p1076
ag1040
ag195
ag1045
ag1046
ag1047
asS'spates'
p1077
(lp1078
S'skates'
p1079
aS'slates'
p1080
aS'spaces'
p1081
aS'spades'
p1082
ag411
aS'spites'
p1083
ag527
asS'silted'
p1084
(lp1085
S'salted'
p1086
aS'sifted'
p1087
aS'tilted'
p1088
aS'wilted'
p1089
asg134
(lp1090
S'detain'
p1091
aS'regain'
p1092
aS'remain'
p1093
ag131
asS'misfit'
p1094
(lp1095
sg311
(lp1096
S'ballet'
p1097
ag308
aS'wallet'
p1098
asg1058
(lp1099
g1055
aS'corner'
p1100
aS'joiner'
p1101
asS'unborn'
p1102
(lp1103
sS'lancer'
p1104
(lp1105
S'cancer'
p1106
aS'dancer'
p1107
aS'lanced'
p1108
aS'lances'
p1109
aS'lander'
p1110
asS'calves'
p1111
(lp1112
S'carves'
p1113
aS'halves'
p1114
aS'salves'
p1115
aS'valves'
p1116
asg1087
(lp1117
S'gifted'
p1118
aS'lifted'
p1119
aS'sifter'
p1120
ag1084
asg942
(lp1121
g940
ag944
aS'sobers'
p1122
asS'romped'
p1123
(lp1124
S'romper'
p1125
asS'retort'
p1126
(lp1127
S'report'
p1128
aS'resort'
p1129
asS'scoffs'
p1130
(lp1131
sS'rouses'
p1132
(lp1133
S'houses'
p1134
aS'mouses'
p1135
aS'reuses'
p1136
aS'roused'
p1137
aS'routes'
p1138
asS'luring'
p1139
(lp1140
S'curing'
p1141
aS'during'
p1142
asS'urging'
p1143
(lp1144
sS'nodule'
p1145
(lp1146
S'module'
p1147
asg549
(lp1148
g545
aS'tigers'
p1149
asS'jungle'
p1150
(lp1151
S'bungle'
p1152
aS'jingle'
p1153
aS'juggle'
p1154
asg437
(lp1155
S'bigots'
p1156
ag438
ag439
ag435
ag440
ag441
ag442
asg1137
(lp1157
S'housed'
p1158
aS'reused'
p1159
ag1132
aS'routed'
p1160
asS'verger'
p1161
(lp1162
S'merger'
p1163
aS'verges'
p1164
asS'sandal'
p1165
(lp1166
sg1125
(lp1167
g1123
asS'squint'
p1168
(lp1169
S'squirt'
p1170
asS'thirty'
p1171
(lp1172
sS'friars'
p1173
(lp1174
S'briars'
p1175
asS'fetter'
p1176
(lp1177
g460
aS'fatter'
p1178
aS'fitter'
p1179
aS'getter'
p1180
aS'letter'
p1181
aS'petter'
p1182
aS'setter'
p1183
aS'wetter'
p1184
asS'deform'
p1185
(lp1186
S'reform'
p1187
asS'office'
p1188
(lp1189
sS'devote'
p1190
(lp1191
S'demote'
p1192
aS'denote'
p1193
asS'pianos'
p1194
(lp1195
sS'muffin'
p1196
(lp1197
S'puffin'
p1198
asS'tandem'
p1199
(lp1200
sS'clench'
p1201
(lp1202
S'clinch'
p1203
asS'facial'
p1204
(lp1205
S'racial'
p1206
asg98
(lp1207
g96
ag97
aS'sickly'
p1208
aS'suckle'
p1209
ag94
asS'winces'
p1210
(lp1211
S'minces'
p1212
aS'winced'
p1213
asg1208
(lp1214
g98
asS'befall'
p1215
(lp1216
S'befell'
p1217
asS'crumbs'
p1218
(lp1219
sS'banged'
p1220
(lp1221
S'bagged'
p1222
aS'banded'
p1223
aS'banked'
p1224
aS'banned'
p1225
aS'hanged'
p1226
aS'ranged'
p1227
asS'sludge'
p1228
(lp1229
S'kludge'
p1230
aS'sledge'
p1231
aS'smudge'
p1232
asS'carnal'
p1233
(lp1234
sS'caster'
p1235
(lp1236
g326
ag391
aS'castes'
p1237
aS'castor'
p1238
aS'easter'
p1239
aS'faster'
p1240
aS'master'
p1241
ag394
aS'taster'
p1242
aS'vaster'
p1243
asg1237
(lp1244
S'bastes'
p1245
ag778
ag1235
ag970
aS'tastes'
p1246
aS'wastes'
p1247
asS'digest'
p1248
(lp1249
S'divest'
p1250
asS'before'
p1251
(lp1252
sS'worthy'
p1253
(lp1254
S'worths'
p1255
asS'frisky'
p1256
(lp1257
S'frisks'
p1258
asS'spokes'
p1259
(lp1260
S'smokes'
p1261
aS'spikes'
p1262
aS'spoked'
p1263
aS'spoken'
p1264
ag1067
asg980
(lp1265
g978
ag976
ag979
aS'toying'
p1266
aS'truing'
p1267
asg1258
(lp1268
g1256
asS'roving'
p1269
(lp1270
S'loving'
p1271
aS'moving'
p1272
aS'raving'
p1273
aS'robing'
p1274
aS'roping'
p1275
aS'rowing'
p1276
asS'secede'
p1277
(lp1278
S'recede'
p1279
asg460
(lp1280
S'batter'
p1281
ag418
aS'bitter'
p1282
aS'butter'
p1283
ag1176
ag1180
ag1181
ag1182
ag1183
ag1184
asg943
(lp1284
S'favors'
p1285
ag940
aS'savory'
p1286
asS'strand'
p1287
(lp1288
sS'adages'
p1289
(lp1290
sS'nobler'
p1291
(lp1292
S'nobles'
p1293
asS'chatty'
p1294
(lp1295
sS'hidden'
p1296
(lp1297
S'bidden'
p1298
aS'ridden'
p1299
asg174
(lp1300
g172
asS'dopers'
p1301
(lp1302
S'ropers'
p1303
asS'trials'
p1304
(lp1305
sS'islets'
p1306
(lp1307
S'inlets'
p1308
asS'coffee'
p1309
(lp1310
S'coffer'
p1311
asS'enrich'
p1312
(lp1313
sS'operas'
p1314
(lp1315
sg272
(lp1316
g268
ag213
ag218
ag829
aS'tracks'
p1317
aS'tracts'
p1318
ag831
asS'school'
p1319
(lp1320
sS'diodes'
p1321
(lp1322
sS'glazer'
p1323
(lp1324
S'blazer'
p1325
aS'glazed'
p1326
aS'glazes'
p1327
aS'grazer'
p1328
asS'unsent'
p1329
(lp1330
sS'porker'
p1331
(lp1332
S'corker'
p1333
ag329
ag332
aS'worker'
p1334
asS'pooled'
p1335
(lp1336
S'cooled'
p1337
aS'fooled'
p1338
aS'polled'
p1339
aS'tooled'
p1340
asS'hiring'
p1341
(lp1342
S'airing'
p1343
aS'firing'
p1344
aS'hiding'
p1345
aS'hiking'
p1346
aS'tiring'
p1347
aS'wiring'
p1348
asg1311
(lp1349
g1309
aS'confer'
p1350
asS'suitor'
p1351
(lp1352
sg1326
(lp1353
S'blazed'
p1354
aS'glared'
p1355
ag1323
ag1327
ag217
asS'galaxy'
p1356
(lp1357
sS'nested'
p1358
(lp1359
S'bested'
p1360
aS'jested'
p1361
ag869
aS'netted'
p1362
aS'rested'
p1363
aS'tested'
p1364
ag244
asS'rental'
p1365
(lp1366
S'dental'
p1367
ag585
asg168
(lp1368
g167
ag165
asS'bolted'
p1369
(lp1370
g445
ag759
aS'jolted'
p1371
asS'leaner'
p1372
(lp1373
g457
aS'leader'
p1374
ag592
aS'meaner'
p1375
asS'vipers'
p1376
(lp1377
g794
aS'wipers'
p1378
asS'oxygen'
p1379
(lp1380
sS'reopen'
p1381
(lp1382
sS'queues'
p1383
(lp1384
S'queued'
p1385
aS'queuer'
p1386
asg1386
(lp1387
g1385
ag1383
asS'nutate'
p1388
(lp1389
S'mutate'
p1390
asS'shelve'
p1391
(lp1392
sS'dyeing'
p1393
(lp1394
S'eyeing'
p1395
asS'glints'
p1396
(lp1397
sg592
(lp1398
S'beaned'
p1399
ag589
ag590
ag591
ag1372
ag593
ag317
ag552
aS'loaned'
p1400
aS'weaned'
p1401
asS'averse'
p1402
(lp1403
sS'flyers'
p1404
(lp1405
S'fliers'
p1406
asg684
(lp1407
g659
ag683
aS'mounds'
p1408
asS'cobweb'
p1409
(lp1410
sg630
(lp1411
S'shiver'
p1412
ag687
ag625
ag629
asg1385
(lp1413
g1386
ag1383
asS'orphan'
p1414
(lp1415
sS'ribbed'
p1416
(lp1417
S'bibbed'
p1418
aS'robbed'
p1419
aS'rubbed'
p1420
asS'burial'
p1421
(lp1422
sS'calmly'
p1423
(lp1424
sS'cranny'
p1425
(lp1426
S'cranky'
p1427
aS'granny'
p1428
asS'kneels'
p1429
(lp1430
S'knells'
p1431
asg408
(lp1432
S'shakes'
p1433
aS'snaked'
p1434
ag404
ag523
asS'fairly'
p1435
(lp1436
sS'series'
p1437
(lp1438
S'serves'
p1439
asg85
(lp1440
S'chimes'
p1441
aS'climes'
p1442
ag82
aS'primes'
p1443
asS'spider'
p1444
(lp1445
g629
asS'tinged'
p1446
(lp1447
S'hinged'
p1448
aS'ringed'
p1449
aS'singed'
p1450
ag934
aS'winged'
p1451
asS'dodged'
p1452
(lp1453
S'dodger'
p1454
aS'dogged'
p1455
ag650
asS'exhume'
p1456
(lp1457
sS'taught'
p1458
(lp1459
S'caught'
p1460
aS'naught'
p1461
asS'lifter'
p1462
(lp1463
g1119
aS'litter'
p1464
ag1120
asg1226
(lp1465
g1220
aS'handed'
p1466
aS'hanger'
p1467
ag1448
ag1227
asg47
(lp1468
g45
ag46
ag1023
ag1021
ag1024
ag1025
ag43
ag50
ag51
ag52
asS'forgot'
p1469
(lp1470
g279
asS'ghosts'
p1471
(lp1472
sS'poncho'
p1473
(lp1474
sS'truant'
p1475
(lp1476
sS'potted'
p1477
(lp1478
S'dotted'
p1479
aS'jotted'
p1480
aS'petted'
p1481
ag907
ag293
ag1033
aS'potter'
p1482
aS'pouted'
p1483
asS'weighs'
p1484
(lp1485
S'weight'
p1486
asS'clothe'
p1487
(lp1488
sS'pounce'
p1489
(lp1490
S'bounce'
p1491
asS'unplug'
p1492
(lp1493
sS'decree'
p1494
(lp1495
S'degree'
p1496
asS'vapors'
p1497
(lp1498
sS'titled'
p1499
(lp1500
g378
aS'titles'
p1501
asS'fevers'
p1502
(lp1503
S'levers'
p1504
ag67
asS'hushed'
p1505
(lp1506
S'gushed'
p1507
aS'hashed'
p1508
aS'hushes'
p1509
aS'husked'
p1510
aS'pushed'
p1511
aS'rushed'
p1512
asS'scenes'
p1513
(lp1514
S'scents'
p1515
asS'diesel'
p1516
(lp1517
sg730
(lp1518
g725
asS'safety'
p1519
(lp1520
g77
asS'vilely'
p1521
(lp1522
sS'buoyed'
p1523
(lp1524
sS'reader'
p1525
(lp1526
S'header'
p1527
ag1374
aS'reaper'
p1528
aS'redder'
p1529
aS'render'
p1530
asg81
(lp1531
g79
aS'clumps'
p1532
aS'cramps'
p1533
asg784
(lp1534
g777
ag778
ag779
ag775
ag781
ag782
ag783
aS'washed'
p1535
ag397
ag1247
aS'wishes'
p1536
asg1509
(lp1537
g670
ag780
ag781
ag1505
aS'pushes'
p1538
aS'rushes'
p1539
asS'flashy'
p1540
(lp1541
S'fleshy'
p1542
asS'makeup'
p1543
(lp1544
S'wakeup'
p1545
asS'grease'
p1546
(lp1547
S'crease'
p1548
aS'greasy'
p1549
asS'abbots'
p1550
(lp1551
sS'cutest'
p1552
(lp1553
sS'resume'
p1554
(lp1555
sS'ambled'
p1556
(lp1557
S'ambler'
p1558
aS'ambles'
p1559
asS'depots'
p1560
(lp1561
sS'admits'
p1562
(lp1563
sS'bestow'
p1564
(lp1565
sg270
(lp1566
S'drapes'
p1567
ag213
ag269
aS'graphs'
p1568
ag271
ag425
ag854
asS'mammal'
p1569
(lp1570
S'mammas'
p1571
asS'entrap'
p1572
(lp1573
sS'wanted'
p1574
(lp1575
g288
aS'ranted'
p1576
aS'waited'
p1577
aS'wasted'
p1578
aS'wonted'
p1579
asS'valued'
p1580
(lp1581
S'valuer'
p1582
aS'values'
p1583
asg1559
(lp1584
g1556
ag1558
asg1558
(lp1585
g1556
ag1559
asS'drench'
p1586
(lp1587
S'trench'
p1588
aS'wrench'
p1589
asS'delves'
p1590
(lp1591
S'selves'
p1592
asg829
(lp1593
g218
ag272
ag826
asg1101
(lp1594
g1058
ag1059
asS'birdie'
p1595
(lp1596
sS'maniac'
p1597
(lp1598
sg526
(lp1599
g412
asg52
(lp1600
g45
ag46
ag47
ag43
ag50
ag51
aS'saving'
p1601
ag704
aS'saying'
p1602
aS'siting'
p1603
asS'ritual'
p1604
(lp1605
sS'cosmic'
p1606
(lp1607
sS'moment'
p1608
(lp1609
sS'filter'
p1610
(lp1611
S'falter'
p1612
aS'filler'
p1613
ag1179
asg820
(lp1614
g513
ag819
aS'linked'
p1615
ag815
ag822
ag1012
ag1013
ag1010
ag1017
asS'disuse'
p1616
(lp1617
S'misuse'
p1618
asS'oppose'
p1619
(lp1620
sS'attune'
p1621
(lp1622
sS'aspire'
p1623
(lp1624
sg1272
(lp1625
g1271
ag1269
asS'sluice'
p1626
(lp1627
sS'waists'
p1628
(lp1629
S'wrists'
p1630
asS'recite'
p1631
(lp1632
S'recipe'
p1633
asS'earthy'
p1634
(lp1635
S'earths'
p1636
asg1530
(lp1637
S'gender'
p1638
aS'lender'
p1639
aS'mender'
p1640
ag1525
ag1529
aS'sender'
p1641
aS'tender'
p1642
asS'stitch'
p1643
(lp1644
S'switch'
p1645
asS'chased'
p1646
(lp1647
S'ceased'
p1648
aS'chaser'
p1649
aS'chases'
p1650
aS'phased'
p1651
asS'coding'
p1652
(lp1653
S'ceding'
p1654
aS'coming'
p1655
ag1052
aS'coping'
p1656
aS'coring'
p1657
ag702
asS'thrown'
p1658
(lp1659
S'throws'
p1660
asS'floors'
p1661
(lp1662
S'floods'
p1663
asS'drones'
p1664
(lp1665
g852
asS'pulsar'
p1666
(lp1667
sS'tangle'
p1668
(lp1669
S'bangle'
p1670
aS'dangle'
p1671
aS'mangle'
p1672
aS'tingle'
p1673
asS'blunts'
p1674
(lp1675
S'blurts'
p1676
asS'bitten'
p1677
(lp1678
S'batten'
p1679
ag1282
aS'kitten'
p1680
aS'mitten'
p1681
asS'inmate'
p1682
(lp1683
S'innate'
p1684
asS'masted'
p1685
(lp1686
S'basted'
p1687
aS'fasted'
p1688
aS'lasted'
p1689
ag446
aS'mashed'
p1690
aS'masked'
p1691
aS'massed'
p1692
ag1241
aS'matted'
p1693
ag933
ag292
aS'tasted'
p1694
ag1578
asg10
(lp1695
S'beamed'
p1696
ag9
aS'seamen'
p1697
ag11
ag6
aS'seemed'
p1698
aS'shamed'
p1699
aS'teamed'
p1700
asS'debase'
p1701
(lp1702
S'debate'
p1703
asS'potash'
p1704
(lp1705
sS'galled'
p1706
(lp1707
S'balled'
p1708
aS'called'
p1709
aS'gabled'
p1710
aS'galley'
p1711
aS'gelled'
p1712
aS'gulled'
p1713
aS'walled'
p1714
asS'struts'
p1715
(lp1716
sS'vagina'
p1717
(lp1718
sg339
(lp1719
g335
ag336
ag337
ag338
ag333
asg1676
(lp1720
g1674
asS'molder'
p1721
(lp1722
S'bolder'
p1723
aS'colder'
p1724
aS'folder'
p1725
aS'holder'
p1726
aS'milder'
p1727
aS'molded'
p1728
ag169
asg1241
(lp1729
g1235
ag1239
ag1240
aS'masker'
p1730
ag1685
aS'matter'
p1731
aS'mister'
p1732
aS'muster'
p1733
ag394
ag1242
ag1243
asS'fumble'
p1734
(lp1735
S'bumble'
p1736
aS'humble'
p1737
aS'jumble'
p1738
aS'mumble'
p1739
aS'rumble'
p1740
aS'tumble'
p1741
asg313
(lp1742
S'biller'
p1743
ag1613
aS'killer'
p1744
ag1727
aS'milker'
p1745
ag312
ag308
aS'tiller'
p1746
asS'manger'
p1747
(lp1748
S'danger'
p1749
ag1467
aS'manner'
p1750
aS'ranger'
p1751
asS'upshot'
p1752
(lp1753
sS'corpus'
p1754
(lp1755
sg1282
(lp1756
g1281
ag460
ag1677
ag1283
ag1179
aS'hitter'
p1757
aS'jitter'
p1758
ag1464
aS'sitter'
p1759
aS'titter'
p1760
asS'duress'
p1761
(lp1762
sg149
(lp1763
g1018
aS'gargle'
p1764
ag150
ag147
asg1390
(lp1765
g1388
asg1283
(lp1766
g1281
ag460
ag1282
ag573
aS'buster'
p1767
aS'butler'
p1768
aS'butted'
p1769
aS'buttes'
p1770
aS'cutter'
p1771
aS'gutter'
p1772
aS'mutter'
p1773
aS'putter'
p1774
asS'murder'
p1775
(lp1776
sS'emblem'
p1777
(lp1778
sS'escort'
p1779
(lp1780
sS'broils'
p1781
(lp1782
sS'radars'
p1783
(lp1784
sS'griefs'
p1785
(lp1786
S'briefs'
p1787
asS'typing'
p1788
(lp1789
S'taping'
p1790
asS'abates'
p1791
(lp1792
S'abases'
p1793
aS'abated'
p1794
aS'abater'
p1795
aS'agates'
p1796
asg1795
(lp1797
g1794
ag1791
asg1247
(lp1798
g1245
ag1237
ag970
ag1246
ag784
ag1578
asS'tokens'
p1799
(lp1800
sg58
(lp1801
g55
asS'cereal'
p1802
(lp1803
sS'swells'
p1804
(lp1805
S'dwells'
p1806
aS'shells'
p1807
ag799
aS'spells'
p1808
asS'purser'
p1809
(lp1810
g330
aS'pursed'
p1811
aS'purses'
p1812
asg478
(lp1813
g474
aS'smacks'
p1814
ag479
asg1794
(lp1815
S'abased'
p1816
ag1795
ag1791
asS'lacing'
p1817
(lp1818
S'facing'
p1819
ag1043
ag1026
aS'laying'
p1820
aS'lazing'
p1821
aS'pacing'
p1822
aS'racing'
p1823
asS'rebuff'
p1824
(lp1825
sS'begins'
p1826
(lp1827
sS'rarest'
p1828
(lp1829
S'barest'
p1830
aS'rawest'
p1831
asS'spayed'
p1832
(lp1833
S'spaced'
p1834
aS'spaded'
p1835
aS'spared'
p1836
aS'stayed'
p1837
aS'swayed'
p1838
asS'outlay'
p1839
(lp1840
S'outlaw'
p1841
asS'target'
p1842
(lp1843
sg601
(lp1844
g596
aS'shower'
p1845
aS'slowed'
p1846
aS'snowed'
p1847
aS'stowed'
p1848
asS'dredge'
p1849
(lp1850
S'drudge'
p1851
asS'tavern'
p1852
(lp1853
S'cavern'
p1854
asS'coward'
p1855
(lp1856
S'toward'
p1857
asS'distal'
p1858
(lp1859
S'dismal'
p1860
asS'likely'
p1861
(lp1862
S'lively'
p1863
asS'medley'
p1864
(lp1865
sg1845
(lp1866
g601
aS'slower'
p1867
asg1731
(lp1868
g1281
ag1178
aS'latter'
p1869
ag1241
ag1693
ag1773
ag331
aS'tatter'
p1870
asS'street'
p1871
(lp1872
sS'endure'
p1873
(lp1874
S'ensure'
p1875
asS'stoned'
p1876
(lp1877
S'atoned'
p1878
aS'stones'
p1879
aS'stored'
p1880
ag1848
asS'loiter'
p1881
(lp1882
g957
asS'bidder'
p1883
(lp1884
S'bedder'
p1885
ag1298
ag335
asS'bridge'
p1886
(lp1887
S'bridle'
p1888
asS'donkey'
p1889
(lp1890
S'monkey'
p1891
asS'manned'
p1892
(lp1893
g1225
aS'canned'
p1894
aS'fanned'
p1895
ag1750
aS'panned'
p1896
asS'entail'
p1897
(lp1898
sS'palace'
p1899
(lp1900
S'palate'
p1901
asS'broods'
p1902
(lp1903
S'bloods'
p1904
aS'brooks'
p1905
aS'brooms'
p1906
asS'quench'
p1907
(lp1908
sS'yeller'
p1909
(lp1910
S'seller'
p1911
aS'teller'
p1912
aS'yelled'
p1913
asS'modern'
p1914
(lp1915
sS'shoals'
p1916
(lp1917
sS'zodiac'
p1918
(lp1919
sS'ginger'
p1920
(lp1921
S'finger'
p1922
aS'linger'
p1923
aS'ringer'
p1924
aS'singer'
p1925
asS'smoker'
p1926
(lp1927
S'smoked'
p1928
ag1261
asS'brainy'
p1929
(lp1930
g987
asg1750
(lp1931
S'banner'
p1932
aS'canner'
p1933
ag1747
ag1892
aS'tanner'
p1934
asS'portal'
p1935
(lp1936
g228
aS'postal'
p1937
asS'stalls'
p1938
(lp1939
g207
asS'kilohm'
p1940
(lp1941
sS'dinner'
p1942
(lp1943
S'sinner'
p1944
ag344
asg276
(lp1945
S'forcer'
p1946
aS'forces'
p1947
ag273
ag280
ag281
asg431
(lp1948
g429
ag430
aS'pander'
p1949
aS'powder'
p1950
ag346
ag427
asS'flatus'
p1951
(lp1952
sS'gambol'
p1953
(lp1954
sS'reined'
p1955
(lp1956
S'rained'
p1957
aS'ruined'
p1958
aS'veined'
p1959
asS'harper'
p1960
(lp1961
g729
aS'harder'
p1962
asS'smooth'
p1963
(lp1964
S'smooch'
p1965
asg1869
(lp1966
g1281
ag1178
ag1181
ag1464
ag1731
ag331
ag1870
asg1066
(lp1967
S'shirts'
p1968
aS'shoots'
p1969
ag1062
aS'shouts'
p1970
aS'snorts'
p1971
aS'sports'
p1972
asS'nagged'
p1973
(lp1974
g1222
aS'gagged'
p1975
aS'ragged'
p1976
aS'tagged'
p1977
asg729
(lp1978
g727
ag728
aS'hammer'
p1979
ag1960
ag725
ag731
asS'racers'
p1980
(lp1981
S'pacers'
p1982
aS'raters'
p1983
asS'desist'
p1984
(lp1985
S'resist'
p1986
asS'hearty'
p1987
(lp1988
S'hearts'
p1989
asS'luxury'
p1990
(lp1991
sg1947
(lp1992
S'farces'
p1993
ag276
ag1946
ag278
asg1946
(lp1994
g276
ag1947
ag277
aS'former'
p1995
asS'magnum'
p1996
(lp1997
sS'curfew'
p1998
(lp1999
sS'sexton'
p2000
(lp2001
sg1949
(lp2002
S'gander'
p2003
ag1110
ag431
ag403
ag340
asS'spited'
p2004
(lp2005
S'spiced'
p2006
aS'spiked'
p2007
ag1083
aS'suited'
p2008
asg1769
(lp2009
S'batted'
p2010
aS'bunted'
p2011
ag621
ag1283
ag1770
asS'maiden'
p2012
(lp2013
S'madden'
p2014
asS'meekly'
p2015
(lp2016
g61
asS'stolid'
p2017
(lp2018
sS'boxcar'
p2019
(lp2020
sS'united'
p2021
(lp2022
S'unites'
p2023
asS'dialup'
p2024
(lp2025
sS'vexing'
p2026
(lp2027
sg1690
(lp2028
S'bashed'
p2029
aS'cashed'
p2030
aS'dashed'
p2031
ag1508
aS'lashed'
p2032
ag783
ag1691
ag1692
ag1685
ag1535
asS'corder'
p2033
(lp2034
S'border'
p2035
aS'carder'
p2036
ag1724
aS'corded'
p2037
ag1333
ag1100
asS'covets'
p2038
(lp2039
S'comets'
p2040
aS'covers'
p2041
asS'errors'
p2042
(lp2043
sS'addict'
p2044
(lp2045
S'adduct'
p2046
asg1181
(lp2047
g460
ag1176
ag1180
ag1869
ag1464
ag1182
ag1183
ag1184
asS'echoes'
p2048
(lp2049
S'echoed'
p2050
asg2037
(lp2051
g2033
aS'corked'
p2052
aS'worded'
p2053
asS'snatch'
p2054
(lp2055
sS'invoke'
p2056
(lp2057
sg633
(lp2058
S'glides'
p2059
ag628
ag629
asg1925
(lp2060
g1922
ag1920
ag1923
ag1924
ag1450
aS'sinker'
p2061
ag1944
asS'stupid'
p2062
(lp2063
sS'alumna'
p2064
(lp2065
S'alumni'
p2066
asS'treats'
p2067
(lp2068
S'treads'
p2069
aS'treaty'
p2070
asS'bisons'
p2071
(lp2072
sg1179
(lp2073
g1282
ag1178
ag1176
ag1610
aS'fitted'
p2074
ag1757
ag1758
ag1464
ag1759
ag1760
asS'purges'
p2075
(lp2076
S'purged'
p2077
ag1812
aS'surges'
p2078
asg2066
(lp2079
g2064
asS'rotary'
p2080
(lp2081
S'notary'
p2082
aS'rosary'
p2083
asS'rancid'
p2084
(lp2085
sS'deacon'
p2086
(lp2087
S'beacon'
p2088
asS'solemn'
p2089
(lp2090
sS'drunks'
p2091
(lp2092
S'drinks'
p2093
aS'trunks'
p2094
asg1450
(lp2095
g1448
ag1449
ag1925
aS'sinked'
p2096
aS'sinned'
p2097
ag1446
ag1451
asS'swamps'
p2098
(lp2099
S'stamps'
p2100
aS'swampy'
p2101
asS'pointy'
p2102
(lp2103
g608
asS'maxima'
p2104
(lp2105
S'maxims'
p2106
asg50
(lp2107
g45
ag46
ag47
ag43
ag192
aS'meting'
p2108
ag51
ag52
asS'notion'
p2109
(lp2110
S'lotion'
p2111
aS'motion'
p2112
aS'nation'
p2113
aS'potion'
p2114
asg2074
(lp2115
S'fisted'
p2116
ag1179
ag907
asS'marvel'
p2117
(lp2118
sg1602
(lp2119
g188
ag49
ag1820
aS'paying'
p2120
ag52
ag1601
ag704
aS'spying'
p2121
asS'fungal'
p2122
(lp2123
sg1681
(lp2124
g1677
ag1680
asS'lyrics'
p2125
(lp2126
sS'endear'
p2127
(lp2128
sS'chirps'
p2129
(lp2130
sS'chewer'
p2131
(lp2132
S'chewed'
p2133
asS'labels'
p2134
(lp2135
S'lapels'
p2136
asS'rubies'
p2137
(lp2138
S'rabies'
p2139
aS'rubles'
p2140
asS'sexist'
p2141
(lp2142
sS'ending'
p2143
(lp2144
S'anding'
p2145
asS'deftly'
p2146
(lp2147
sS'colors'
p2148
(lp2149
S'colons'
p2150
asS'sulfur'
p2151
(lp2152
sS'poison'
p2153
(lp2154
S'prison'
p2155
asg247
(lp2156
g248
ag245
asS'lethal'
p2157
(lp2158
sS'indigo'
p2159
(lp2160
sS'peddle'
p2161
(lp2162
S'meddle'
p2163
aS'paddle'
p2164
aS'piddle'
p2165
ag861
asg2133
(lp2166
g2131
aS'crewed'
p2167
asS'unduly'
p2168
(lp2169
S'unruly'
p2170
asS'deeded'
p2171
(lp2172
S'deemed'
p2173
ag612
aS'needed'
p2174
aS'seeded'
p2175
asS'sharks'
p2176
(lp2177
g477
ag407
aS'shirks'
p2178
aS'sparks'
p2179
asS'sweats'
p2180
(lp2181
S'swears'
p2182
aS'sweaty'
p2183
aS'sweets'
p2184
asS'judges'
p2185
(lp2186
S'budges'
p2187
aS'judged'
p2188
asS'bluing'
p2189
(lp2190
S'gluing'
p2191
asS'latent'
p2192
(lp2193
S'lament'
p2194
aS'latest'
p2195
aS'patent'
p2196
asg1821
(lp2197
g1025
ag1817
ag1043
ag1026
ag1820
asg1896
(lp2198
g1225
ag1894
ag1895
ag1892
aS'pained'
p2199
ag288
aS'penned'
p2200
aS'pinned'
p2201
asS'surged'
p2202
(lp2203
g2077
ag2078
asS'delays'
p2204
(lp2205
S'belays'
p2206
aS'decays'
p2207
aS'relays'
p2208
asS'abjure'
p2209
(lp2210
S'adjure'
p2211
asS'folded'
p2212
(lp2213
g1725
ag1728
asS'stanza'
p2214
(lp2215
sS'celery'
p2216
(lp2217
sS'cougar'
p2218
(lp2219
sS'ebbing'
p2220
(lp2221
sS'tropic'
p2222
(lp2223
sg1725
(lp2224
g1723
ag1724
aS'fodder'
p2225
ag2212
ag430
ag1726
ag1721
ag169
asS'swarms'
p2226
(lp2227
sg359
(lp2228
g357
ag358
aS'jailer'
p2229
ag360
ag361
ag362
ag355
ag365
ag366
asS'sunder'
p2230
(lp2231
S'funder'
p2232
ag403
ag1641
asS'smutty'
p2233
(lp2234
sg1431
(lp2235
g1429
aS'knolls'
p2236
asg331
(lp2237
g1281
ag1178
ag1869
ag1731
ag291
ag1182
ag1482
ag1774
ag1870
asS'mouths'
p2238
(lp2239
S'months'
p2240
asS'sleepy'
p2241
(lp2242
S'sleeps'
p2243
asS'vowels'
p2244
(lp2245
S'bowels'
p2246
aS'towels'
p2247
asg262
(lp2248
g260
asS'enters'
p2249
(lp2250
S'eaters'
p2251
aS'enders'
p2252
asS'repose'
p2253
(lp2254
S'depose'
p2255
asS'spirit'
p2256
(lp2257
sg1128
(lp2258
S'deport'
p2259
ag1129
ag1126
asS'knocks'
p2260
(lp2261
sS'relish'
p2262
(lp2263
sS'comply'
p2264
(lp2265
S'comely'
p2266
asg2096
(lp2267
g1615
ag1450
ag2061
ag2097
aS'winked'
p2268
asS'verses'
p2269
(lp2270
g1164
aS'versed'
p2271
aS'versus'
p2272
asS'angers'
p2273
(lp2274
S'anders'
p2275
aS'angels'
p2276
aS'augers'
p2277
asS'jaguar'
p2278
(lp2279
sg574
(lp2280
g570
asS'greens'
p2281
(lp2282
S'greets'
p2283
asS'nicely'
p2284
(lp2285
sg1823
(lp2286
g1819
ag1817
ag1822
ag1076
ag193
aS'raping'
p2287
ag51
ag1273
asS'resell'
p2288
(lp2289
sS'sloths'
p2290
(lp2291
sS'method'
p2292
(lp2293
sS'decoys'
p2294
(lp2295
g2207
asS'shoddy'
p2296
(lp2297
sS'softly'
p2298
(lp2299
sS'cozier'
p2300
(lp2301
S'copier'
p2302
asS'girdle'
p2303
(lp2304
sg448
(lp2305
g388
aS'anodes'
p2306
asS'hasten'
p2307
(lp2308
S'fasten'
p2309
asg1308
(lp2310
g1306
asg2053
(lp2311
g2037
aS'wooded'
p2312
aS'worked'
p2313
aS'wormed'
p2314
asS'attest'
p2315
(lp2316
sS'reread'
p2317
(lp2318
sS'keypad'
p2319
(lp2320
sS'edited'
p2321
(lp2322
S'exited'
p2323
asS'fluffy'
p2324
(lp2325
sg2182
(lp2326
S'shears'
p2327
aS'smears'
p2328
aS'spears'
p2329
ag2180
asg2173
(lp2330
g2171
ag1698
aS'teemed'
p2331
asg1147
(lp2332
S'moduli'
p2333
aS'modulo'
p2334
ag1145
asS'epochs'
p2335
(lp2336
sS'flaxen'
p2337
(lp2338
sS'allure'
p2339
(lp2340
S'allude'
p2341
asg159
(lp2342
S'radios'
p2343
ag157
asS'result'
p2344
(lp2345
sS'cattle'
p2346
(lp2347
S'battle'
p2348
aS'castle'
p2349
aS'rattle'
p2350
asS'ruffle'
p2351
(lp2352
S'muffle'
p2353
asS'rarity'
p2354
(lp2355
S'parity'
p2356
asg1979
(lp2357
g729
aS'hummer'
p2358
asS'byword'
p2359
(lp2360
sS'accede'
p2361
(lp2362
sS'frugal'
p2363
(lp2364
sg292
(lp2365
g1687
ag1688
ag1689
ag1685
ag288
ag284
aS'passed'
p2366
ag968
ag970
ag1033
ag1694
ag1578
asS'afloat'
p2367
(lp2368
sS'jargon'
p2369
(lp2370
sg598
(lp2371
S'shaded'
p2372
ag1699
aS'shaped'
p2373
aS'shared'
p2374
aS'shaven'
p2375
aS'shaves'
p2376
ag596
aS'staved'
p2377
asS'drover'
p2378
(lp2379
S'driver'
p2380
ag852
aS'prover'
p2381
asg852
(lp2382
S'drives'
p2383
ag1664
ag2378
ag845
ag855
asg1814
(lp2384
g477
aS'slacks'
p2385
ag478
aS'stacks'
p2386
asg106
(lp2387
g104
asg2100
(lp2388
S'stumps'
p2389
ag2098
asS'future'
p2390
(lp2391
S'suture'
p2392
asS'arcane'
p2393
(lp2394
S'arcade'
p2395
asg1922
(lp2396
g337
ag1920
ag1923
ag1924
ag1925
asS'revels'
p2397
(lp2398
S'bevels'
p2399
aS'levels'
p2400
aS'rebels'
p2401
aS'repels'
p2402
asS'traits'
p2403
(lp2404
g1318
aS'trails'
p2405
aS'trains'
p2406
asS'boyish'
p2407
(lp2408
sg2376
(lp2409
S'shades'
p2410
ag1433
aS'shames'
p2411
aS'shapes'
p2412
ag407
ag598
ag2375
ag600
ag690
ag528
asS'baboon'
p2413
(lp2414
sS'pirate'
p2415
(lp2416
sg970
(lp2417
g1245
ag1237
aS'passes'
p2418
ag292
ag968
ag1246
ag1247
asg759
(lp2419
g1369
ag758
ag756
aS'footed'
p2420
aS'hooted'
p2421
ag40
aS'rooted'
p2422
asg2184
(lp2423
S'sheets'
p2424
ag2180
aS'sweeps'
p2425
asS'accord'
p2426
(lp2427
sS'prided'
p2428
(lp2429
S'priced'
p2430
aS'prides'
p2431
ag837
aS'prized'
p2432
asS'extend'
p2433
(lp2434
S'expend'
p2435
aS'extent'
p2436
asS'nature'
p2437
(lp2438
S'mature'
p2439
asS'rolled'
p2440
(lp2441
g1339
aS'roller'
p2442
aS'tolled'
p2443
asS'felony'
p2444
(lp2445
sS'dumber'
p2446
(lp2447
S'dumper'
p2448
aS'lumber'
p2449
aS'number'
p2450
asg613
(lp2451
g609
ag614
ag615
asg528
(lp2452
g2376
ag690
ag522
ag523
ag412
ag527
ag2377
aS'stoves'
p2453
asg2111
(lp2454
g2112
ag2109
ag2114
asS'embody'
p2455
(lp2456
sS'larynx'
p2457
(lp2458
sS'archly'
p2459
(lp2460
sS'devout'
p2461
(lp2462
S'devour'
p2463
asg2436
(lp2464
S'extant'
p2465
ag2433
asS'butane'
p2466
(lp2467
sS'cousin'
p2468
(lp2469
sS'drowsy'
p2470
(lp2471
sS'swoops'
p2472
(lp2473
S'scoops'
p2474
aS'snoops'
p2475
aS'stoops'
p2476
asS'tautly'
p2477
(lp2478
S'tartly'
p2479
asS'dearer'
p2480
(lp2481
g458
aS'deafer'
p2482
aS'dealer'
p2483
aS'hearer'
p2484
ag868
aS'wearer'
p2485
asg1317
(lp2486
S'cracks'
p2487
ag272
ag1318
aS'tricks'
p2488
aS'trucks'
p2489
asg1480
(lp2490
g1479
aS'jetted'
p2491
ag1371
ag1477
asS'meanly'
p2492
(lp2493
sg1198
(lp2494
g1196
asg2243
(lp2495
g2241
aS'steeps'
p2496
ag2425
asS'gasped'
p2497
(lp2498
S'gassed'
p2499
aS'rasped'
p2500
asS'encore'
p2501
(lp2502
S'encode'
p2503
asS'sketch'
p2504
(lp2505
sg673
(lp2506
g671
asg2108
(lp2507
g50
asS'groans'
p2508
(lp2509
sg319
(lp2510
g314
aS'senses'
p2511
aS'tenses'
p2512
asS'typist'
p2513
(lp2514
sg1507
(lp2515
S'gusher'
p2516
ag780
ag1505
ag1511
ag1512
asS'snored'
p2517
(lp2518
S'scored'
p2519
ag409
ag410
ag1847
ag1880
asS'singly'
p2520
(lp2521
S'kingly'
p2522
aS'single'
p2523
asS'tubing'
p2524
(lp2525
S'tuning'
p2526
asS'excess'
p2527
(lp2528
S'excels'
p2529
asS'blonds'
p2530
(lp2531
S'blends'
p2532
aS'blinds'
p2533
aS'blonde'
p2534
ag1904
asS'cobble'
p2535
(lp2536
S'gobble'
p2537
aS'hobble'
p2538
asS'height'
p2539
(lp2540
g1486
asS'canyon'
p2541
(lp2542
S'cannon'
p2543
aS'canton'
p2544
asg2516
(lp2545
g1507
ag780
aS'pusher'
p2546
ag396
asg780
(lp2547
g670
ag775
ag1507
ag2516
ag1509
ag1538
ag1539
asS'loaded'
p2548
(lp2549
S'goaded'
p2550
ag589
ag323
aS'loafed'
p2551
ag1400
asg2534
(lp2552
g2530
asS'nimbly'
p2553
(lp2554
S'nimble'
p2555
ag113
asS'stubby'
p2556
(lp2557
sS'brassy'
p2558
(lp2559
g298
asS'roofer'
p2560
(lp2561
S'roofed'
p2562
aS'roomer'
p2563
aS'rooter'
p2564
aS'woofer'
p2565
asS'adverb'
p2566
(lp2567
S'advert'
p2568
asS'parley'
p2569
(lp2570
S'barley'
p2571
aS'parlay'
p2572
asS'chrome'
p2573
(lp2574
sS'foully'
p2575
(lp2576
sS'blower'
p2577
(lp2578
S'flower'
p2579
aS'glower'
p2580
aS'plower'
p2581
ag1867
asg2568
(lp2582
S'advent'
p2583
ag2566
asS'viewer'
p2584
(lp2585
S'viewed'
p2586
asg2562
(lp2587
S'goofed'
p2588
ag2560
ag761
ag2422
aS'woofed'
p2589
asS'crania'
p2590
(lp2591
sS'zebras'
p2592
(lp2593
sS'dozens'
p2594
(lp2595
sS'acuity'
p2596
(lp2597
sS'duties'
p2598
(lp2599
sS'gamely'
p2600
(lp2601
S'lamely'
p2602
aS'namely'
p2603
ag259
asS'lockup'
p2604
(lp2605
S'lookup'
p2606
aS'mockup'
p2607
asS'deeper'
p2608
(lp2609
S'deepen'
p2610
aS'keeper'
p2611
aS'peeper'
p2612
aS'weeper'
p2613
asS'poring'
p2614
(lp2615
S'boring'
p2616
ag1657
aS'paring'
p2617
aS'poking'
p2618
ag237
aS'posing'
p2619
asS'puppet'
p2620
(lp2621
sS'pecked'
p2622
(lp2623
S'decked'
p2624
ag916
aS'peaked'
p2625
aS'peeked'
p2626
ag1013
asS'glided'
p2627
(lp2628
S'glider'
p2629
ag2059
aS'guided'
p2630
asS'excite'
p2631
(lp2632
S'excise'
p2633
asg2183
(lp2634
g2180
asS'genres'
p2635
(lp2636
sS'moneys'
p2637
(lp2638
sS'schema'
p2639
(lp2640
S'scheme'
p2641
asS'voicer'
p2642
(lp2643
S'voiced'
p2644
aS'voices'
p2645
aS'voider'
p2646
asg2443
(lp2647
g1339
ag2440
ag378
aS'toiled'
p2648
ag1340
asS'doubts'
p2649
(lp2650
sg2610
(lp2651
g2608
asg2313
(lp2652
g2052
ag280
ag2053
ag1334
ag2314
asg2059
(lp2653
g2627
ag2629
aS'guides'
p2654
ag633
asg2629
(lp2655
g2627
ag2059
ag629
asg1641
(lp2656
g1638
ag1639
ag1640
ag1530
ag403
aS'seeder'
p2657
ag2230
ag1642
asS'gritty'
p2658
(lp2659
sS'social'
p2660
(lp2661
sS'affirm'
p2662
(lp2663
sS'lilacs'
p2664
(lp2665
sg384
(lp2666
g382
aS'lesson'
p2667
asS'employ'
p2668
(lp2669
sS'airmen'
p2670
(lp2671
S'airman'
p2672
asS'fallow'
p2673
(lp2674
g28
aS'follow'
p2675
aS'hallow'
p2676
aS'sallow'
p2677
aS'tallow'
p2678
aS'wallow'
p2679
asS'abrupt'
p2680
(lp2681
sS'misses'
p2682
(lp2683
S'hisses'
p2684
aS'kisses'
p2685
aS'masses'
p2686
aS'messes'
p2687
aS'missed'
p2688
aS'mosses'
p2689
asS'thrash'
p2690
(lp2691
S'thrush'
p2692
asg1579
(lp2693
g1574
asg1672
(lp2694
g1670
ag1671
aS'mantle'
p2695
aS'mingle'
p2696
ag1668
asS'anchor'
p2697
(lp2698
sS'skirts'
p2699
(lp2700
g1968
asS'buried'
p2701
(lp2702
S'buries'
p2703
aS'burned'
p2704
aS'burped'
p2705
ag619
asS'levies'
p2706
(lp2707
S'levees'
p2708
aS'levied'
p2709
asS'brewer'
p2710
(lp2711
S'brewed'
p2712
asS'paunch'
p2713
(lp2714
S'haunch'
p2715
aS'launch'
p2716
asg1348
(lp2717
g1343
ag1344
ag1341
ag1347
aS'wining'
p2718
aS'wiping'
p2719
asS'dumped'
p2720
(lp2721
S'bumped'
p2722
ag2448
aS'humped'
p2723
aS'jumped'
p2724
aS'lumped'
p2725
aS'pumped'
p2726
asg1164
(lp2727
S'merges'
p2728
ag1161
ag2269
asg632
(lp2729
S'clicks'
p2730
aS'flicks'
p2731
ag2385
ag628
aS'sticks'
p2732
asS'welded'
p2733
(lp2734
S'wedded'
p2735
aS'welder'
p2736
aS'welled'
p2737
asg2712
(lp2738
g2710
ag2167
asS'elicit'
p2739
(lp2740
sS'tissue'
p2741
(lp2742
sS'misers'
p2743
(lp2744
S'miners'
p2745
aS'misery'
p2746
aS'mixers'
p2747
aS'risers'
p2748
asS'creepy'
p2749
(lp2750
S'creeps'
p2751
asg2709
(lp2752
g2706
asS'vendor'
p2753
(lp2754
sS'uplift'
p2755
(lp2756
sg361
(lp2757
g357
ag358
ag359
ag360
ag362
ag355
ag365
ag366
asg2448
(lp2758
S'bumper'
p2759
ag728
ag2446
ag2720
aS'jumper'
p2760
asS'babied'
p2761
(lp2762
S'babies'
p2763
asS'thusly'
p2764
(lp2765
sS'platen'
p2766
(lp2767
g713
aS'plates'
p2768
asS'flocks'
p2769
(lp2770
S'blocks'
p2771
aS'clocks'
p2772
ag2731
aS'frocks'
p2773
asS'surrey'
p2774
(lp2775
S'survey'
p2776
asS'credit'
p2777
(lp2778
sg2196
(lp2779
g2192
aS'parent'
p2780
aS'potent'
p2781
asS'parish'
p2782
(lp2783
S'pariah'
p2784
aS'perish'
p2785
asS'crates'
p2786
(lp2787
S'cranes'
p2788
aS'crater'
p2789
aS'craves'
p2790
aS'crazes'
p2791
ag271
asS'harass'
p2792
(lp2793
sg713
(lp2794
g711
ag712
ag2766
ag2768
ag709
ag13
asg1615
(lp2795
g820
aS'linker'
p2796
ag2096
ag2268
asg947
(lp2797
g945
aS'reside'
p2798
asS'writer'
p2799
(lp2800
S'waiter'
p2801
aS'whiter'
p2802
aS'writes'
p2803
asS'triers'
p2804
(lp2805
S'criers'
p2806
aS'driers'
p2807
asg461
(lp2808
g418
asg2763
(lp2809
g2761
ag2139
asS'avoids'
p2810
(lp2811
sg2768
(lp2812
S'places'
p2813
aS'planes'
p2814
ag713
ag2766
ag1080
asg612
(lp2815
g2171
aS'headed'
p2816
ag609
aS'herded'
p2817
ag2174
ag2175
asS'mailer'
p2818
(lp2819
g2229
ag360
aS'railer'
p2820
asS'evolve'
p2821
(lp2822
sS'boiled'
p2823
(lp2824
S'boiler'
p2825
aS'bowled'
p2826
ag1057
aS'foiled'
p2827
ag364
ag2648
asS'warder'
p2828
(lp2829
g2036
ag1962
aS'larder'
p2830
ag340
aS'warden'
p2831
aS'warmer'
p2832
aS'warner'
p2833
asS'blames'
p2834
(lp2835
S'blades'
p2836
aS'blamed'
p2837
aS'blamer'
p2838
aS'blares'
p2839
aS'blazes'
p2840
aS'flames'
p2841
asg2838
(lp2842
g456
ag2837
ag2834
ag1325
aS'flamer'
p2843
asg1831
(lp2844
g1828
asS'teacup'
p2845
(lp2846
sS'depict'
p2847
(lp2848
sS'garlic'
p2849
(lp2850
sg2825
(lp2851
g2823
aS'bowler'
p2852
aS'toiler'
p2853
asS'descry'
p2854
(lp2855
sS'supper'
p2856
(lp2857
sS'faiths'
p2858
(lp2859
sS'dozing'
p2860
(lp2861
S'doping'
p2862
ag734
asg2588
(lp2863
g2562
ag2589
asg2837
(lp2864
g1696
ag2838
ag2834
aS'blared'
p2865
ag1354
aS'flamed'
p2866
asS'darned'
p2867
(lp2868
S'damned'
p2869
aS'darner'
p2870
ag287
aS'dawned'
p2871
aS'earned'
p2872
aS'warned'
p2873
asg1770
(lp2874
g1769
ag1283
asS'tassel'
p2875
(lp2876
sS'spotty'
p2877
(lp2878
S'snotty'
p2879
aS'sporty'
p2880
asg513
(lp2881
g510
ag820
ag1012
ag1013
ag1010
ag1017
asS'supple'
p2882
(lp2883
S'supply'
p2884
asS'vulgar'
p2885
(lp2886
sg1737
(lp2887
g1736
ag1734
ag112
ag1738
ag1739
ag1740
ag1741
asg1261
(lp2888
g1928
ag1926
ag1259
asg2106
(lp2889
g2104
asg2050
(lp2890
g2048
asS'berate'
p2891
(lp2892
S'aerate'
p2893
aS'borate'
p2894
asS'modems'
p2895
(lp2896
S'models'
p2897
asS'florid'
p2898
(lp2899
S'florin'
p2900
asS'client'
p2901
(lp2902
sg225
(lp2903
S'screws'
p2904
aS'shrews'
p2905
ag221
aS'stress'
p2906
ag543
asg2870
(lp2907
S'darker'
p2908
ag2867
ag327
aS'earner'
p2909
aS'garner'
p2910
ag2833
asg112
(lp2911
g110
ag1737
ag113
asS'alarms'
p2912
(lp2913
sS'claims'
p2914
(lp2915
sg1928
(lp2916
g1926
ag1261
ag1263
asS'plaque'
p2917
(lp2918
S'plague'
p2919
asS'incite'
p2920
(lp2921
S'invite'
p2922
asS'bugger'
p2923
(lp2924
S'bagger'
p2925
aS'bigger'
p2926
aS'bugged'
p2927
aS'bugler'
p2928
asg27
(lp2929
S'billow'
p2930
ag28
ag29
ag25
asS'givers'
p2931
(lp2932
S'divers'
p2933
aS'livers'
p2934
aS'rivers'
p2935
asg214
(lp2936
g2550
ag210
ag828
ag269
ag215
ag216
ag217
ag830
asS'addend'
p2937
(lp2938
sg2271
(lp2939
g2269
asS'quasar'
p2940
(lp2941
sS'masons'
p2942
(lp2943
sS'bruise'
p2944
(lp2945
S'cruise'
p2946
asS'unfair'
p2947
(lp2948
sg2167
(lp2949
g2712
ag2133
aS'crowed'
p2950
asS'sonata'
p2951
(lp2952
sS'rodent'
p2953
(lp2954
sg109
(lp2955
g107
aS'quoted'
p2956
asg269
(lp2957
g213
ag214
ag828
ag270
ag271
ag831
asg828
(lp2958
g214
ag269
aS'grater'
p2959
aS'graver'
p2960
aS'grayer'
p2961
ag1328
ag826
asg2927
(lp2962
g1222
aS'begged'
p2963
aS'bogged'
p2964
aS'budged'
p2965
ag2923
aS'bugled'
p2966
aS'bulged'
p2967
aS'rugged'
p2968
asS'thanks'
p2969
(lp2970
S'thinks'
p2971
asS'victim'
p2972
(lp2973
sg2275
(lp2974
S'adders'
p2975
ag2273
ag2252
asS'airbag'
p2976
(lp2977
sS'taxied'
p2978
(lp2979
sS'plight'
p2980
(lp2981
S'alight'
p2982
aS'blight'
p2983
aS'flight'
p2984
aS'slight'
p2985
asS'cretin'
p2986
(lp2987
sg89
(lp2988
g90
ag91
ag87
asg2676
(lp2989
g2673
aS'hollow'
p2990
ag2677
ag2678
ag2679
asS'secure'
p2991
(lp2992
sS'adding'
p2993
(lp2994
S'aiding'
p2995
ag2145
asS'buyers'
p2996
(lp2997
S'guyers'
p2998
asS'chided'
p2999
(lp3000
S'chides'
p3001
asS'namers'
p3002
(lp3003
sS'dining'
p3004
(lp3005
S'diving'
p3006
aS'fining'
p3007
aS'lining'
p3008
aS'mining'
p3009
ag235
ag2718
asS'legion'
p3010
(lp3011
S'region'
p3012
asS'cherry'
p3013
(lp3014
S'cheery'
p3015
aS'sherry'
p3016
asS'sprawl'
p3017
(lp3018
S'scrawl'
p3019
asS'cognac'
p3020
(lp3021
sg3001
(lp3022
g2999
ag1441
asS'defray'
p3023
(lp3024
sS'sulked'
p3025
(lp3026
S'bulked'
p3027
aS'sucked'
p3028
asg2155
(lp3029
g2153
asg1612
(lp3030
g1240
ag1178
ag1610
aS'halter'
p3031
aS'salter'
p3032
asS'allele'
p3033
(lp3034
S'allege'
p3035
asS'formal'
p3036
(lp3037
S'format'
p3038
aS'normal'
p3039
asS'plasma'
p3040
(lp3041
sS'askers'
p3042
(lp3043
S'asters'
p3044
asS'basset'
p3045
(lp3046
S'basket'
p3047
ag668
asg116
(lp3048
S'unable'
p3049
ag114
asg823
(lp3050
g817
ag818
ag815
aS'mocker'
p3051
ag824
ag825
asS'tactic'
p3052
(lp3053
sS'hoists'
p3054
(lp3055
sg668
(lp3056
g777
ag3045
ag1245
ag669
ag620
aS'lasses'
p3057
ag2686
ag2418
asg1408
(lp3058
S'bounds'
p3059
aS'founds'
p3060
aS'hounds'
p3061
ag684
aS'pounds'
p3062
aS'rounds'
p3063
aS'sounds'
p3064
aS'wounds'
p3065
asS'elders'
p3066
(lp3067
g2252
asS'breaks'
p3068
(lp3069
S'breads'
p3070
aS'creaks'
p3071
aS'freaks'
p3072
aS'wreaks'
p3073
asS'firmer'
p3074
(lp3075
S'farmer'
p3076
aS'firmed'
p3077
ag1995
asS'upturn'
p3078
(lp3079
sS'ramrod'
p3080
(lp3081
sS'fusion'
p3082
(lp3083
sS'dreamy'
p3084
(lp3085
S'creamy'
p3086
aS'dreams'
p3087
aS'dreamt'
p3088
aS'dreary'
p3089
asg3051
(lp3090
g821
ag823
aS'mucker'
p3091
aS'rocker'
p3092
asg3088
(lp3093
g3087
ag3084
asS'shadow'
p3094
(lp3095
sS'unique'
p3096
(lp3097
sS'spawns'
p3098
(lp3099
sg3087
(lp3100
S'creams'
p3101
aS'dreads'
p3102
ag3088
ag3084
asS'specie'
p3103
(lp3104
sS'desire'
p3105
(lp3106
sg627
(lp3107
g625
ag628
aS'slimed'
p3108
ag2006
asS'daemon'
p3109
(lp3110
sS'trivia'
p3111
(lp3112
sS'rustle'
p3113
(lp3114
S'bustle'
p3115
aS'hustle'
p3116
asS'cooler'
p3117
(lp3118
g1337
aS'cooper'
p3119
aS'tooler'
p3120
asg1118
(lp3121
g1119
ag1087
asS'manual'
p3122
(lp3123
sS'pencil'
p3124
(lp3125
sg2998
(lp3126
g2996
asg1006
(lp3127
g1005
ag1003
asg377
(lp3128
g312
ag2688
ag933
asS'ninety'
p3129
(lp3130
sS'sponge'
p3131
(lp3132
S'spongy'
p3133
asS'homing'
p3134
(lp3135
g1655
aS'honing'
p3136
aS'hoping'
p3137
asS'lapses'
p3138
(lp3139
S'lapsed'
p3140
ag3057
asS'pillar'
p3141
(lp3142
sg1337
(lp3143
g1057
aS'cooked'
p3144
ag3117
ag36
ag1338
ag1335
ag1340
asS'lurked'
p3145
(lp3146
g822
asS'soccer'
p3147
(lp3148
sS'sacker'
p3149
(lp3150
S'backer'
p3151
aS'hacker'
p3152
ag917
ag516
aS'sucker'
p3153
asS'sordid'
p3154
(lp3155
sg2306
(lp3156
g448
asS'jabbed'
p3157
(lp3158
sg237
(lp3159
g234
ag229
ag2618
ag2614
ag2619
asg3133
(lp3160
g3131
asg1175
(lp3161
g1173
asS'runoff'
p3162
(lp3163
sg1395
(lp3164
g1393
asg666
(lp3165
g664
aS'crests'
p3166
asS'altars'
p3167
(lp3168
S'alters'
p3169
asS'intern'
p3170
(lp3171
sS'clawed'
p3172
(lp3173
S'flawed'
p3174
asS'roamed'
p3175
(lp3176
S'foamed'
p3177
aS'roared'
p3178
ag761
asS'escape'
p3179
(lp3180
sS'tuples'
p3181
(lp3182
sS'unless'
p3183
(lp3184
sg3140
(lp3185
g3138
asS'glance'
p3186
(lp3187
sS'orchid'
p3188
(lp3189
sS'denies'
p3190
(lp3191
S'defies'
p3192
aS'denied'
p3193
aS'denier'
p3194
asg3194
(lp3195
g3193
ag3190
aS'denser'
p3196
asS'spruce'
p3197
(lp3198
sg3119
(lp3199
g3117
ag36
aS'copper'
p3200
aS'hooper'
p3201
asS'bottom'
p3202
(lp3203
sS'purple'
p3204
(lp3205
sS'vacuum'
p3206
(lp3207
sS'roster'
p3208
(lp3209
S'foster'
p3210
aS'poster'
p3211
ag394
ag2564
aS'router'
p3212
asS'totals'
p3213
(lp3214
sS'probed'
p3215
(lp3216
S'probes'
p3217
aS'proved'
p3218
asg36
(lp3219
g3144
ag1337
ag3119
ag34
asS'asking'
p3220
(lp3221
sS'select'
p3222
(lp3223
sg3193
(lp3224
S'defied'
p3225
ag3194
ag3190
ag241
asS'mirage'
p3226
(lp3227
sS'yields'
p3228
(lp3229
S'wields'
p3230
asS'lagers'
p3231
(lp3232
S'cagers'
p3233
aS'lasers'
p3234
aS'layers'
p3235
aS'pagers'
p3236
ag90
asg562
(lp3237
g560
asg2046
(lp3238
S'abduct'
p3239
ag2044
aS'adduce'
p3240
asS'slurry'
p3241
(lp3242
S'blurry'
p3243
aS'flurry'
p3244
aS'scurry'
p3245
asS'pagans'
p3246
(lp3247
sS'bisque'
p3248
(lp3249
sS'tunics'
p3250
(lp3251
S'tonics'
p3252
asg1182
(lp3253
g460
ag1176
ag1180
ag1181
ag331
aS'pester'
p3254
ag1481
aS'pewter'
p3255
ag1482
ag1774
ag1183
ag1184
asS'shaker'
p3256
(lp3257
S'shaken'
p3258
ag1433
aS'shaper'
p3259
ag531
asg1433
(lp3260
g2410
ag3258
ag3256
ag2411
ag2412
ag407
ag2376
ag408
ag523
asS'sparse'
p3261
(lp3262
sS'damask'
p3263
(lp3264
sS'widget'
p3265
(lp3266
S'fidget'
p3267
aS'midget'
p3268
asg1367
(lp3269
g583
ag585
ag1365
asg1350
(lp3270
g1311
asS'banjos'
p3271
(lp3272
sS'sleigh'
p3273
(lp3274
sg335
(lp3275
g1883
ag429
ag336
ag337
ag338
ag339
ag333
asg3136
(lp3276
S'boning'
p3277
ag3134
ag3137
aS'toning'
p3278
aS'zoning'
p3279
asS'threes'
p3280
(lp3281
sS'zigzag'
p3282
(lp3283
sS'tribes'
p3284
(lp3285
S'bribes'
p3286
asg2611
(lp3287
g2608
aS'keener'
p3288
ag2612
ag2613
asS'pliers'
p3289
(lp3290
g1406
asS'bowing'
p3291
(lp3292
g3277
ag2616
aS'boxing'
p3293
ag702
ag1276
aS'vowing'
p3294
asg1361
(lp3295
g1360
aS'jester'
p3296
ag2491
ag1358
ag1363
ag1364
ag244
asS'herpes'
p3297
(lp3298
S'heroes'
p3299
asg3258
(lp3300
g3256
ag1433
ag2375
asS'jurors'
p3301
(lp3302
sS'trophy'
p3303
(lp3304
sS'repays'
p3305
(lp3306
g2208
asS'census'
p3307
(lp3308
sS'cowboy'
p3309
(lp3310
sg2410
(lp3311
g2372
ag1433
ag2411
ag2412
ag407
ag2376
ag1082
asS'theirs'
p3312
(lp3313
sS'geisha'
p3314
(lp3315
sS'stinks'
p3316
(lp3317
g2732
ag695
asg1957
(lp3318
S'gained'
p3319
ag2199
aS'raided'
p3320
ag362
aS'raised'
p3321
ag1955
ag1958
asS'blithe'
p3322
(lp3323
sg1057
(lp3324
g2823
ag1055
ag1337
ag2827
ag364
ag2648
asg572
(lp3325
g3151
ag1224
ag1932
aS'banter'
p3326
aS'barker'
p3327
ag570
aS'canker'
p3328
aS'ranker'
p3329
aS'tanker'
p3330
asS'commit'
p3331
(lp3332
sg819
(lp3333
S'backed'
p3334
aS'hacked'
p3335
aS'lackey'
p3336
ag820
ag815
ag822
ag916
aS'racked'
p3337
ag1014
asS'twitch'
p3338
(lp3339
g1645
asg2163
(lp3340
S'middle'
p3341
ag860
ag2161
asS'barfly'
p3342
(lp3343
S'barely'
p3344
asg3321
(lp3345
g3320
ag362
ag1957
aS'raiser'
p3346
aS'raises'
p3347
asg1773
(lp3348
g1283
ag1771
ag1772
ag1731
ag1733
ag1774
asg2695
(lp3349
g1672
asg1535
(lp3350
g2029
ag2030
ag2031
ag1508
ag2032
ag1690
ag397
ag784
ag1578
aS'wished'
p3351
asg71
(lp3352
g68
ag70
asS'aphids'
p3353
(lp3354
sS'brutes'
p3355
(lp3356
sS'litmus'
p3357
(lp3358
sS'poodle'
p3359
(lp3360
S'doodle'
p3361
aS'noodle'
p3362
asg772
(lp3363
g770
asS'finely'
p3364
(lp3365
sg3346
(lp3366
S'raider'
p3367
ag2820
ag3321
ag3347
asS'capped'
p3368
(lp3369
S'camped'
p3370
aS'cupped'
p3371
aS'mapped'
p3372
aS'tapped'
p3373
asS'veiled'
p3374
(lp3375
g1959
asg1067
(lp3376
g1065
ag1062
ag410
ag411
aS'spires'
p3377
ag1259
ag1972
ag529
asg1969
(lp3378
g1066
ag1970
asS'croaks'
p3379
(lp3380
S'cloaks'
p3381
ag3071
aS'crocks'
p3382
aS'crooks'
p3383
asg3063
(lp3384
g3059
ag3060
ag3061
ag1408
ag3062
ag3064
ag3065
asS'fabric'
p3385
(lp3386
sg366
(lp3387
g357
ag358
ag359
ag360
ag361
ag362
ag355
ag365
ag1577
aS'waived'
p3388
ag1714
asg2406
(lp3389
g987
aS'drains'
p3390
aS'grains'
p3391
ag2405
ag2403
asS'visage'
p3392
(lp3393
sS'flying'
p3394
(lp3395
sS'intone'
p3396
(lp3397
sS'virgin'
p3398
(lp3399
sS'fought'
p3400
(lp3401
S'bought'
p3402
aS'sought'
p3403
asS'editor'
p3404
(lp3405
sS'bodies'
p3406
(lp3407
S'bodied'
p3408
asS'kiting'
p3409
(lp3410
S'biting'
p3411
aS'citing'
p3412
ag1603
asS'queens'
p3413
(lp3414
sS'minors'
p3415
(lp3416
S'manors'
p3417
ag2745
asS'grooms'
p3418
(lp3419
g1906
asS'lowest'
p3420
(lp3421
sS'starve'
p3422
(lp3423
sS'alloys'
p3424
(lp3425
S'allays'
p3426
aS'alleys'
p3427
aS'allots'
p3428
aS'allows'
p3429
asS'faring'
p3430
(lp3431
g186
ag699
aS'daring'
p3432
ag1819
ag1042
ag191
ag662
ag1344
ag2617
asg964
(lp3433
g962
aS'steels'
p3434
ag2496
asg662
(lp3435
g3430
ag660
asg1149
(lp3436
g549
asS'sundry'
p3437
(lp3438
sg425
(lp3439
g270
ag422
ag854
asg2200
(lp3440
g1896
aS'pended'
p3441
ag2201
asS'diaper'
p3442
(lp3443
S'dialer'
p3444
aS'dipper'
p3445
aS'draper'
p3446
asS'scales'
p3447
(lp3448
S'scaled'
p3449
aS'scalps'
p3450
ag406
asg2399
(lp3451
g2400
ag2397
asS'nodded'
p3452
(lp3453
sS'usages'
p3454
(lp3455
sg910
(lp3456
g908
asS'lilies'
p3457
(lp3458
sS'injury'
p3459
(lp3460
S'injure'
p3461
asS'builds'
p3462
(lp3463
sS'braver'
p3464
(lp3465
g459
aS'braved'
p3466
aS'braves'
p3467
aS'brayer'
p3468
ag2960
asg3467
(lp3469
g268
aS'brakes'
p3470
ag3466
ag3464
aS'bravos'
p3471
aS'brazes'
p3472
ag2790
asS'arrays'
p3473
(lp3474
sS'utmost'
p3475
(lp3476
sS'inside'
p3477
(lp3478
sS'spleen'
p3479
(lp3480
sS'staged'
p3481
(lp3482
g533
ag522
aS'staked'
p3483
ag524
ag14
ag2377
ag1837
asg3059
(lp3484
g3060
ag3061
ag1408
ag3062
ag3063
ag3064
ag3065
asg529
(lp3485
g1065
ag1062
ag410
ag1067
ag412
aS'stoles'
p3486
ag1879
ag1880
aS'storks'
p3487
aS'storms'
p3488
ag2453
asg1958
(lp3489
g1957
ag1955
asg3466
(lp3490
g212
aS'braked'
p3491
ag3464
ag3467
aS'brayed'
p3492
aS'brazed'
p3493
aS'craved'
p3494
asg1075
(lp3495
g698
ag1023
ag1822
ag234
ag2617
aS'paving'
p3496
ag703
ag2120
ag1076
ag1044
asS'nicest'
p3497
(lp3498
sg191
(lp3499
g184
ag190
ag1819
ag1042
ag3430
ag192
ag193
ag194
ag195
asS'hassle'
p3500
(lp3501
sS'cosmos'
p3502
(lp3503
sS'panels'
p3504
(lp3505
sS'winers'
p3506
(lp3507
S'diners'
p3508
aS'liners'
p3509
ag2745
ag1378
asS'hooded'
p3510
(lp3511
S'hooked'
p3512
ag2421
ag2312
asS'delete'
p3513
(lp3514
sS'linden'
p3515
(lp3516
sS'gather'
p3517
(lp3518
S'bather'
p3519
aS'father'
p3520
ag395
asS'hotter'
p3521
(lp3522
g1757
aS'hooter'
p3523
ag1482
aS'totter'
p3524
asS'lately'
p3525
(lp3526
g2602
asS'ushers'
p3527
(lp3528
sS'untidy'
p3529
(lp3530
sS'covert'
p3531
(lp3532
g2041
asS'umpire'
p3533
(lp3534
S'empire'
p3535
asS'stooge'
p3536
(lp3537
sS'shined'
p3538
(lp3539
S'shiner'
p3540
aS'shines'
p3541
aS'whined'
p3542
asg2041
(lp3543
S'coders'
p3544
aS'comers'
p3545
aS'corers'
p3546
ag3531
ag2038
aS'cowers'
p3547
aS'hovers'
p3548
aS'lovers'
p3549
aS'movers'
p3550
asS'sticky'
p3551
(lp3552
g2732
aS'stocky'
p3553
asS'manure'
p3554
(lp3555
g2439
asg2381
(lp3556
g2378
aS'proper'
p3557
ag3218
aS'proven'
p3558
ag855
asg2725
(lp3559
g2722
ag2720
ag2723
ag2724
aS'limped'
p3560
ag2726
asS'quartz'
p3561
(lp3562
S'quarts'
p3563
asg1116
(lp3564
g1111
ag1114
ag1115
ag1583
asg835
(lp3565
g3468
ag2961
ag714
ag715
asS'awhile'
p3566
(lp3567
sS'enlist'
p3568
(lp3569
sS'acacia'
p3570
(lp3571
sg2483
(lp3572
g2482
ag2480
ag3444
aS'healer'
p3573
aS'sealer'
p3574
asS'regime'
p3575
(lp3576
sg2853
(lp3577
g2825
ag2648
aS'toilet'
p3578
ag3120
asg2546
(lp3579
g2516
ag1511
ag1538
ag396
asg1401
(lp3580
g1399
ag592
asg1479
(lp3581
g1480
ag1477
asg3245
(lp3582
S'scurvy'
p3583
ag3241
asS'alerts'
p3584
(lp3585
S'averts'
p3586
asS'clings'
p3587
(lp3588
S'clangs'
p3589
aS'flings'
p3590
ag694
asg120
(lp3591
g119
aS'clowns'
p3592
aS'crowds'
p3593
ag121
ag117
asS'nimbus'
p3594
(lp3595
sS'shrine'
p3596
(lp3597
g536
asS'papers'
p3598
(lp3599
S'capers'
p3600
ag1982
ag3236
aS'payers'
p3601
ag794
aS'tapers'
p3602
asg259
(lp3603
g2600
ag2602
ag2603
ag257
asS'frolic'
p3604
(lp3605
sg536
(lp3606
S'shrank'
p3607
ag534
ag3596
aS'shrunk'
p3608
asg1713
(lp3609
S'bulled'
p3610
aS'culled'
p3611
aS'dulled'
p3612
ag1706
ag1712
aS'gulped'
p3613
aS'lulled'
p3614
aS'nulled'
p3615
aS'pulled'
p3616
asg2519
(lp3617
S'scared'
p3618
aS'scoped'
p3619
aS'scorer'
p3620
ag1065
ag2517
ag1880
asg1483
(lp3621
g293
ag1033
ag1477
aS'poured'
p3622
ag1160
asS'grasps'
p3623
(lp3624
sS'hereby'
p3625
(lp3626
S'heresy'
p3627
asS'intend'
p3628
(lp3629
g807
asg690
(lp3630
g2376
ag1080
ag687
ag528
asS'savage'
p3631
(lp3632
S'ravage'
p3633
asg2897
(lp3634
g2895
aS'motels'
p3635
asS'juices'
p3636
(lp3637
sS'hawked'
p3638
(lp3639
g3335
aS'hawker'
p3640
asS'fowler'
p3641
(lp3642
g2852
aS'howler'
p3643
asg837
(lp3644
g424
ag2430
ag2428
aS'primer'
p3645
ag1443
ag2432
asS'polite'
p3646
(lp3647
S'police'
p3648
asS'pummel'
p3649
(lp3650
sS'maimed'
p3651
(lp3652
g360
asS'blokes'
p3653
(lp3654
sg2266
(lp3655
S'comedy'
p3656
ag2264
aS'homely'
p3657
asS'husker'
p3658
(lp3659
g1510
asS'budded'
p3660
(lp3661
S'bedded'
p3662
ag2965
asg1065
(lp3663
g406
aS'scopes'
p3664
ag2519
ag3620
aS'scorns'
p3665
ag1062
ag410
ag1067
ag529
asg3640
(lp3666
g3152
ag3638
asS'skinny'
p3667
(lp3668
sS'derail'
p3669
(lp3670
g133
asS'meteor'
p3671
(lp3672
sg1082
(lp3673
g2410
ag1081
ag1835
ag411
ag1077
asg1240
(lp3674
g1235
ag1239
ag1612
ag1688
ag2309
ag1178
ag3210
ag1241
ag394
ag1242
ag1243
asS'diadem'
p3675
(lp3676
sS'potato'
p3677
(lp3678
sS'assume'
p3679
(lp3680
S'assure'
p3681
asg752
(lp3682
g749
asg1696
(lp3683
S'beaded'
p3684
aS'beaked'
p3685
ag456
ag1399
ag2837
ag10
ag1700
asg232
(lp3686
g231
ag3007
ag1344
aS'fixing'
p3687
ag233
ag229
ag238
asg915
(lp3688
g913
ag920
asg1688
(lp3689
g1687
ag2309
ag1240
ag2116
ag1689
ag1685
ag292
ag1694
ag1578
asg3610
(lp3690
g1708
ag373
ag2966
ag2967
ag3027
aS'bullet'
p3691
ag3611
ag3612
ag1713
ag3614
ag3615
ag3616
asg2550
(lp3692
g214
ag2548
asg2309
(lp3693
g1688
ag1240
aS'fatten'
p3694
ag2307
asg456
(lp3695
g455
ag1696
ag457
ag458
ag418
ag459
ag2838
asS'lineup'
p3696
(lp3697
sg2386
(lp3698
g477
ag2385
ag1814
ag2732
ag479
asS'revoke'
p3699
(lp3700
sS'lemons'
p3701
(lp3702
S'demons'
p3703
asg51
(lp3704
g45
ag46
ag47
ag43
ag50
ag1823
ag1076
ag193
ag2287
ag1273
ag52
asS'patina'
p3705
(lp3706
sS'consul'
p3707
(lp3708
sS'global'
p3709
(lp3710
sS'people'
p3711
(lp3712
sS'baited'
p3713
(lp3714
S'baiter'
p3715
ag1687
ag2010
aS'gaited'
p3716
ag1577
asg808
(lp3717
g805
ag807
aS'invert'
p3718
aS'invest'
p3719
asS'themes'
p3720
(lp3721
S'theses'
p3722
asg329
(lp3723
g3327
ag2908
aS'marker'
p3724
ag917
ag289
ag330
ag291
ag1331
asS'recode'
p3725
(lp3726
S'decode'
p3727
ag1279
asS'skiing'
p3728
(lp3729
sg2348
(lp3730
S'bottle'
p3731
ag2346
ag2350
asS'fawned'
p3732
(lp3733
g2871
ag1895
asg1443
(lp3734
g85
aS'prices'
p3735
ag2431
ag837
ag3645
aS'prizes'
p3736
asg3715
(lp3737
g3713
ag3326
ag325
ag1281
aS'gaiter'
p3738
ag2801
asS'fusing'
p3739
(lp3740
S'busing'
p3741
aS'fuming'
p3742
aS'musing'
p3743
asg3235
(lp3744
g3231
ag3234
ag3601
ag944
asS'agleam'
p3745
(lp3746
sg1097
(lp3747
g1708
aS'baller'
p3748
aS'ballot'
p3749
ag310
ag3691
ag311
ag1098
asg3286
(lp3750
S'bribed'
p3751
aS'briber'
p3752
aS'brides'
p3753
ag3284
asg3748
(lp3754
g1708
ag1097
ag1743
aS'caller'
p3755
aS'taller'
p3756
asg3548
(lp3757
g2041
aS'homers'
p3758
aS'hovels'
p3759
ag3549
ag3550
asS'unpack'
p3760
(lp3761
sg3520
(lp3762
g3519
ag1178
ag3517
ag395
asS'busboy'
p3763
(lp3764
sg2789
(lp3765
g2786
ag2959
asg1708
(lp3766
S'balked'
p3767
aS'ballad'
p3768
ag3748
ag1097
aS'bawled'
p3769
ag373
ag3610
ag1709
ag1706
ag1714
asS'aplomb'
p3770
(lp3771
sg3751
(lp3772
g3752
ag3286
asS'avowal'
p3773
(lp3774
sS'terror'
p3775
(lp3776
sg2136
(lp3777
g2134
asS'nuance'
p3778
(lp3779
sg933
(lp3780
g2116
aS'listed'
p3781
ag1685
ag927
ag377
ag2688
ag1732
asS'feebly'
p3782
(lp3783
S'feeble'
p3784
asS'string'
p3785
(lp3786
g353
aS'strong'
p3787
ag354
asS'impend'
p3788
(lp3789
sS'woolly'
p3790
(lp3791
S'coolly'
p3792
aS'wholly'
p3793
asS'spools'
p3794
(lp3795
S'spoils'
p3796
aS'spoons'
p3797
asg1851
(lp3798
g1849
aS'grudge'
p3799
aS'trudge'
p3800
asS'bluffs'
p3801
(lp3802
sS'thawed'
p3803
(lp3804
sS'choice'
p3805
(lp3806
sS'ranked'
p3807
(lp3808
g1224
ag3337
ag1227
ag3329
ag1576
aS'yanked'
p3809
asS'embark'
p3810
(lp3811
sS'dinghy'
p3812
(lp3813
sg3115
(lp3814
g3116
ag3113
asg1680
(lp3815
g1677
ag1681
asg3620
(lp3816
g2519
ag1065
asg280
(lp3817
g2052
ag276
ag273
ag281
ag2313
asg1343
(lp3818
g2995
ag231
aS'aiming'
p3819
ag1344
ag1341
ag1347
ag1348
asg3784
(lp3820
g3782
asS'minute'
p3821
(lp3822
sS'bathos'
p3823
(lp3824
S'bathes'
p3825
aS'pathos'
p3826
asS'biceps'
p3827
(lp3828
sS'evaded'
p3829
(lp3830
S'evades'
p3831
asS'clouds'
p3832
(lp3833
S'cloudy'
p3834
asS'nectar'
p3835
(lp3836
sg171
(lp3837
g1115
ag1592
ag170
ag165
aS'wolves'
p3838
asS'purely'
p3839
(lp3840
S'surely'
p3841
asS'amoral'
p3842
(lp3843
sS'valley'
p3844
(lp3845
g1711
aS'volley'
p3846
asg441
(lp3847
g437
ag438
ag439
ag435
ag440
ag442
asg409
(lp3848
g3618
ag11
ag2374
ag1434
ag404
ag2517
aS'soared'
p3849
ag1836
ag524
asS'bilges'
p3850
(lp3851
S'binges'
p3852
asS'skewed'
p3853
(lp3854
S'skewer'
p3855
aS'stewed'
p3856
asS'magnet'
p3857
(lp3858
sg2277
(lp3859
g2273
aS'augurs'
p3860
asg1834
(lp3861
S'spacer'
p3862
ag1081
ag1835
ag1836
ag1832
ag2006
asg293
(lp3863
g284
ag332
ag1033
ag1477
ag1483
aS'sorted'
p3864
asg3831
(lp3865
g3829
asS'subway'
p3866
(lp3867
sS'recall'
p3868
(lp3869
sg3855
(lp3870
g3853
asS'edicts'
p3871
(lp3872
S'evicts'
p3873
asS'svelte'
p3874
(lp3875
sg289
(lp3876
S'barked'
p3877
aS'marked'
p3878
ag916
ag329
ag290
ag284
asg1230
(lp3879
g1228
asS'scrape'
p3880
(lp3881
S'scraps'
p3882
asg1867
(lp3883
g2577
ag2579
ag2580
ag2581
ag1845
aS'sloper'
p3884
ag1846
asS'meadow'
p3885
(lp3886
sS'ripely'
p3887
(lp3888
sS'minion'
p3889
(lp3890
S'pinion'
p3891
asg2405
(lp3892
g2406
ag2403
asS'steaks'
p3893
(lp3894
S'sneaks'
p3895
aS'speaks'
p3896
aS'steals'
p3897
aS'steams'
p3898
asS'inland'
p3899
(lp3900
S'inlaid'
p3901
aS'island'
p3902
asS'erotic'
p3903
(lp3904
S'exotic'
p3905
asS'anvils'
p3906
(lp3907
sg1968
(lp3908
S'shifts'
p3909
ag2178
ag1066
ag2699
asS'scarce'
p3910
(lp3911
sS'smithy'
p3912
(lp3913
S'smiths'
p3914
asS'adorns'
p3915
(lp3916
S'acorns'
p3917
aS'adores'
p3918
asS'hoarse'
p3919
(lp3920
S'coarse'
p3921
asS'ripoff'
p3922
(lp3923
sg2453
(lp3924
g600
ag528
ag3486
ag1879
ag529
asg2093
(lp3925
g2091
asS'majors'
p3926
(lp3927
g3417
aS'mayors'
p3928
asS'gayety'
p3929
(lp3930
S'gaiety'
p3931
asS'soured'
p3932
(lp3933
g3622
ag3849
aS'souped'
p3934
aS'sourer'
p3935
aS'toured'
p3936
asS'choral'
p3937
(lp3938
sS'appear'
p3939
(lp3940
S'appeal'
p3941
asg1613
(lp3942
g1743
ag374
ag1610
aS'fuller'
p3943
ag1744
ag313
ag1746
asg1732
(lp3944
g1241
ag932
ag933
ag1733
aS'sister'
p3945
asS'avouch'
p3946
(lp3947
sg821
(lp3948
g815
ag956
ag3051
ag3092
asg407
(lp3949
g406
ag2410
ag1433
ag2411
ag2412
ag2374
ag531
ag2176
ag2376
ag1062
ag404
ag411
ag412
asS'agrees'
p3950
(lp3951
S'agreed'
p3952
aS'agreer'
p3953
asS'annals'
p3954
(lp3955
S'annuls'
p3956
asg3935
(lp3957
S'pourer'
p3958
ag3932
asS'icings'
p3959
(lp3960
sg3072
(lp3961
g3068
ag3071
ag3073
asS'polloi'
p3962
(lp3963
sg3941
(lp3964
g3939
asg374
(lp3965
g373
aS'felled'
p3966
ag1613
aS'filmed'
p3967
ag375
ag312
ag378
ag379
asS'growls'
p3968
(lp3969
sS'seaman'
p3970
(lp3971
g1697
asS'unsure'
p3972
(lp3973
g1875
aS'insure'
p3974
asS'clergy'
p3975
(lp3976
sS'climbs'
p3977
(lp3978
g1442
asS'resins'
p3979
(lp3980
sg2145
(lp3981
g2993
ag2995
ag2143
asg3296
(lp3982
g1361
ag869
ag3254
aS'tester'
p3983
asS'detest'
p3984
(lp3985
S'detect'
p3986
asS'groups'
p3987
(lp3988
sS'exhale'
p3989
(lp3990
sS'deceit'
p3991
(lp3992
S'decent'
p3993
asS'change'
p3994
(lp3995
S'chance'
p3996
aS'charge'
p3997
asS'unkind'
p3998
(lp3999
S'unbind'
p4000
aS'unwind'
p4001
asS'quails'
p4002
(lp4003
sg722
(lp4004
g720
asS'pearly'
p4005
(lp4006
S'dearly'
p4007
aS'nearly'
p4008
aS'pearls'
p4009
aS'yearly'
p4010
asS'bygone'
p4011
(lp4012
sS'cuckoo'
p4013
(lp4014
sg2843
(lp4015
g2838
ag2866
ag2841
aS'framer'
p4016
asg4009
(lp4017
g4005
asS'funded'
p4018
(lp4019
g2232
asS'torque'
p4020
(lp4021
sg3178
(lp4022
S'reared'
p4023
ag3175
aS'roarer'
p4024
ag3849
asg150
(lp4025
g149
ag147
asg2866
(lp4026
g2837
aS'flaked'
p4027
ag2843
ag2841
aS'flared'
p4028
ag3174
ag3177
aS'framed'
p4029
asS'vocals'
p4030
(lp4031
S'locals'
p4032
asg2232
(lp4033
g337
ag430
ag4018
ag2230
asS'sphere'
p4034
(lp4035
sS'pillow'
p4036
(lp4037
g2930
aS'willow'
p4038
asS'pinkly'
p4039
(lp4040
sS'lowers'
p4041
(lp4042
S'bowers'
p4043
ag3547
aS'loners'
p4044
aS'losers'
p4045
ag3549
aS'powers'
p4046
aS'towers'
p4047
asg1796
(lp4048
g1791
asg878
(lp4049
g875
ag877
aS'higher'
p4050
ag1757
ag879
ag880
asS'useful'
p4051
(lp4052
sg1904
(lp4053
g2530
aS'bloody'
p4054
aS'blooms'
p4055
ag1902
ag1663
asg1346
(lp4056
g189
ag1345
ag1341
aS'liking'
p4057
asS'radish'
p4058
(lp4059
sg2806
(lp4060
g2807
ag2804
asg1038
(lp4061
g1034
aS'franks'
p4062
ag1039
asS'prefer'
p4063
(lp4064
sS'melons'
p4065
(lp4066
sg3878
(lp4067
g3877
ag3724
aS'market'
p4068
ag1691
ag289
asg4054
(lp4069
g1904
asS'morale'
p4070
(lp4071
S'morals'
p4072
asS'losing'
p4073
(lp4074
g1271
ag735
ag2619
asS'phylum'
p4075
(lp4076
sS'puffed'
p4077
(lp4078
sg231
(lp4079
g2995
ag3819
ag1343
ag232
ag233
ag229
ag238
asS'ossify'
p4080
(lp4081
sg86
(lp4082
g82
asg4068
(lp4083
g3878
ag3724
asS'hotels'
p4084
(lp4085
g3759
ag3635
asS'alnico'
p4086
(lp4087
sg2880
(lp4088
g1972
ag2877
asS'driest'
p4089
(lp4090
S'priest'
p4091
asS'senile'
p4092
(lp4093
sS'termed'
p4094
(lp4095
g1700
ag2331
asS'pluses'
p4096
(lp4097
S'pauses'
p4098
aS'plumes'
p4099
asg1671
(lp4100
g1670
ag1672
ag1668
asg2687
(lp4101
g2686
aS'messed'
p4102
ag2682
ag2689
asg3633
(lp4103
g3631
asS'palmed'
p4104
(lp4105
S'calmed'
p4106
aS'palmer'
p4107
asg1880
(lp4108
g2519
ag2517
ag524
ag1876
ag529
ag1848
asg3086
(lp4109
S'creaky'
p4110
ag3101
ag3084
asS'upheld'
p4111
(lp4112
S'uphold'
p4113
asS'frothy'
p4114
(lp4115
sS'memory'
p4116
(lp4117
sg2503
(lp4118
g2501
asS'francs'
p4119
(lp4120
g4062
asg3101
(lp4121
g3071
ag3086
ag3087
asg2276
(lp4122
g2273
asS'nozzle'
p4123
(lp4124
g70
asg1271
(lp4125
S'living'
p4126
ag4073
ag1272
ag1269
asS'dismay'
p4127
(lp4128
g1860
asg3546
(lp4129
g3544
ag3545
ag2041
ag3547
asS'chasms'
p4130
(lp4131
S'charms'
p4132
ag1650
asS'teased'
p4133
(lp4134
g1648
ag317
ag1700
aS'teared'
p4135
ag320
aS'tensed'
p4136
asS'repast'
p4137
(lp4138
S'recast'
p4139
asS'sprite'
p4140
(lp4141
sg3956
(lp4142
g3954
aS'annuli'
p4143
asS'afford'
p4144
(lp4145
sS'laughs'
p4146
(lp4147
sS'aright'
p4148
(lp4149
g2982
aS'bright'
p4150
aS'fright'
p4151
asS'odious'
p4152
(lp4153
sS'sinful'
p4154
(lp4155
sS'visual'
p4156
(lp4157
sg1224
(lp4158
g3334
ag3767
ag1223
ag1220
ag572
ag1225
ag3877
aS'basked'
p4159
ag3807
ag3809
asg1860
(lp4160
g4127
ag1858
asS'virtue'
p4161
(lp4162
sS'savior'
p4163
(lp4164
sS'riding'
p4165
(lp4166
g2995
ag1345
aS'rising'
p4167
aS'siding'
p4168
aS'tiding'
p4169
asS'orator'
p4170
(lp4171
sS'talent'
p4172
(lp4173
sS'effort'
p4174
(lp4175
sg4143
(lp4176
g3956
asS'behalf'
p4177
(lp4178
sg527
(lp4179
g1079
ag1080
ag1077
ag522
ag523
ag412
ag14
aS'status'
p4180
ag528
asg2852
(lp4181
g2825
ag2826
ag3641
ag3643
asS'slogan'
p4182
(lp4183
sS'edible'
p4184
(lp4185
sg2624
(lp4186
g818
aS'ducked'
p4187
ag2622
asS'dialed'
p4188
(lp4189
g3444
asS'slimly'
p4190
(lp4191
sg3336
(lp4192
g819
asg1242
(lp4193
g1235
ag1239
ag1240
ag1241
ag394
ag1694
ag1246
ag1870
ag3983
ag1243
asS'hubris'
p4194
(lp4195
sS'nether'
p4196
(lp4197
sg3444
(lp4198
g2483
ag4188
ag3442
asg1583
(lp4199
g1580
ag1582
ag1116
asg2826
(lp4200
g3769
ag2823
ag2852
aS'howled'
p4201
asS'snuffs'
p4202
(lp4203
S'sniffs'
p4204
aS'stuffs'
p4205
asg192
(lp4206
g184
ag190
ag191
ag50
ag193
ag194
ag195
asS'arrive'
p4207
(lp4208
sg97
(lp4209
g96
ag98
ag94
asS'dosage'
p4210
(lp4211
sg1135
(lp4212
g1134
ag2689
aS'mouser'
p4213
ag1132
asS'breeds'
p4214
(lp4215
S'bleeds'
p4216
ag3070
aS'creeds'
p4217
asS'streak'
p4218
(lp4219
S'stream'
p4220
asg2240
(lp4221
g2238
asS'iodine'
p4222
(lp4223
sg298
(lp4224
g2558
ag294
asS'figure'
p4225
(lp4226
sg4098
(lp4227
g469
aS'parses'
p4228
ag2418
aS'paused'
p4229
ag4096
asS'quirky'
p4230
(lp4231
sg4229
(lp4232
g468
ag290
ag2366
ag4098
asS'drawer'
p4233
(lp4234
g3446
asS'critic'
p4235
(lp4236
sg2619
(lp4237
g4073
ag735
ag2618
ag237
ag2614
asS'purity'
p4238
(lp4239
g2356
aS'purify'
p4240
asg1738
(lp4241
g1736
ag1734
ag1737
ag1739
ag1740
ag1741
asS'midway'
p4242
(lp4243
S'midday'
p4244
asS'topple'
p4245
(lp4246
sS'quacks'
p4247
(lp4248
sS'tubers'
p4249
(lp4250
S'tuners'
p4251
asg12
(lp4252
g6
aS'skater'
p4253
ag1079
ag13
ag14
asg3428
(lp4254
g3429
ag3424
asg3742
(lp4255
g3739
asS'writhe'
p4256
(lp4257
sS'starch'
p4258
(lp4259
S'search'
p4260
aS'stanch'
p4261
asg2618
(lp4262
S'joking'
p4263
ag237
ag2614
ag2619
asS'cliche'
p4264
(lp4265
sS'lounge'
p4266
(lp4267
sS'immune'
p4268
(lp4269
sS'rafter'
p4270
(lp4271
S'ranter'
p4272
ag394
asg822
(lp4273
S'bucked'
p4274
ag4187
ag819
ag820
ag815
ag3145
ag3028
ag1016
asS'fourth'
p4275
(lp4276
sg1079
(lp4277
g12
ag4253
ag1080
ag1077
ag527
asS'bleary'
p4278
(lp4279
sg1024
(lp4280
g1023
ag1021
ag47
ag1025
ag2287
ag1790
asg889
(lp4281
g39
ag886
ag888
aS'losses'
p4282
asg224
(lp4283
S'sprays'
p4284
ag223
ag221
asg2375
(lp4285
g3258
ag598
ag2376
asg554
(lp4286
g318
asS'armies'
p4287
(lp4288
sS'tipper'
p4289
(lp4290
g3445
aS'tapper'
p4291
aS'tipped'
p4292
asg3493
(lp4293
g1354
ag212
ag3491
ag3466
ag3492
aS'brazen'
p4294
ag3472
aS'crazed'
p4295
ag217
asg1838
(lp4296
g1832
ag1837
asg438
(lp4297
g437
aS'eighth'
p4298
aS'eighty'
p4299
ag439
ag435
ag440
ag441
ag442
asg317
(lp4300
g1648
ag589
ag590
ag591
ag592
ag593
ag314
ag552
ag4133
asS'ponies'
p4301
(lp4302
sg4299
(lp4303
g4298
ag438
aS'mighty'
p4304
asS'ornery'
p4305
(lp4306
sg4294
(lp4307
g3493
ag3472
asS'fueled'
p4308
(lp4309
sg244
(lp4310
g1360
ag1361
ag1358
ag1363
ag1364
ag239
asg3472
(lp4311
g2840
ag268
ag3470
ag3467
ag3493
ag4294
ag2791
asg4292
(lp4312
S'dipped'
p4313
aS'ripped'
p4314
ag3373
ag4289
asS'seeing'
p4315
(lp4316
S'sewing'
p4317
asg588
(lp4318
g2816
ag611
ag865
ag8
ag568
aS'heaver'
p4319
ag551
ag552
asS'floral'
p4320
(lp4321
sg3299
(lp4322
S'herons'
p4323
ag3297
ag764
asg1141
(lp4324
g699
ag1657
ag1142
ag1139
asg4298
(lp4325
g438
ag4299
asS'repeat'
p4326
(lp4327
S'repeal'
p4328
aS'repent'
p4329
asS'mended'
p4330
(lp4331
g1640
ag931
ag3441
aS'tended'
p4332
asg3488
(lp4333
g529
ag3487
aS'stormy'
p4334
asS'gorges'
p4335
(lp4336
g278
aS'gouges'
p4337
asg2906
(lp4338
g225
asg2377
(lp4339
g598
ag3481
ag3483
ag524
ag14
ag528
ag1837
asg866
(lp4340
g865
ag593
ag1528
ag4023
asS'liquid'
p4341
(lp4342
sg1266
(lp4343
g3278
ag980
asg4159
(lp4344
g3334
ag3767
ag1224
ag3877
ag2029
ag3047
ag1687
ag1691
aS'tasked'
p4345
asS'lemmas'
p4346
(lp4347
sS'puller'
p4348
(lp4349
S'culler'
p4350
aS'duller'
p4351
ag3943
ag3616
aS'pulley'
p4352
asg4240
(lp4353
g4238
asg643
(lp4354
g642
ag640
asg2476
(lp4355
g2474
ag2475
ag2472
asS'fluent'
p4356
(lp4357
sS'inform'
p4358
(lp4359
S'infirm'
p4360
asg1645
(lp4361
g1643
ag3338
asg358
(lp4362
g357
aS'hauled'
p4363
ag359
ag360
ag361
ag362
ag355
ag365
ag366
asS'lagoon'
p4364
(lp4365
sg967
(lp4366
g965
ag879
ag1501
asg3047
(lp4367
g4159
ag3045
aS'casket'
p4368
aS'gasket'
p4369
asg3838
(lp4370
g171
asg3616
(lp4371
g3610
ag3611
ag3612
ag1713
ag3614
ag3615
ag1339
ag4348
ag4352
aS'pulsed'
p4372
asS'blowup'
p4373
(lp4374
sg1515
(lp4375
g1513
asS'outlet'
p4376
(lp4377
S'cutlet'
p4378
aS'outset'
p4379
asg3860
(lp4380
g2277
asg3553
(lp4381
g3551
ag479
asS'sonnet'
p4382
(lp4383
S'bonnet'
p4384
asS'shield'
p4385
(lp4386
sS'wintry'
p4387
(lp4388
sS'fleets'
p4389
(lp4390
sS'indeed'
p4391
(lp4392
sg1857
(lp4393
g1855
asg950
(lp4394
g948
asS'arguer'
p4395
(lp4396
S'argued'
p4397
aS'argues'
p4398
asg4398
(lp4399
g4397
ag4395
asg2995
(lp4400
g2993
ag231
ag3819
ag1343
ag2145
ag1345
ag4165
ag4168
ag4169
asS'course'
p4401
(lp4402
g3921
asS'idling'
p4403
(lp4404
sS'meters'
p4405
(lp4406
sg1837
(lp4407
g1832
ag3481
ag3483
ag524
ag14
ag2377
ag1838
asg4397
(lp4408
g4395
ag4398
asS'razors'
p4409
(lp4410
sg207
(lp4411
g203
ag206
ag1938
aS'stiles'
p4412
aS'stilts'
p4413
asS'biters'
p4414
(lp4415
S'liters'
p4416
asS'trifle'
p4417
(lp4418
S'triple'
p4419
asS'farmed'
p4420
(lp4421
g3076
ag3077
ag281
aS'harmed'
p4422
aS'warmed'
p4423
asS'derive'
p4424
(lp4425
S'deride'
p4426
asg3648
(lp4427
S'policy'
p4428
ag3646
asS'solace'
p4429
(lp4430
sg2607
(lp4431
g2604
asS'duplex'
p4432
(lp4433
sS'bagels'
p4434
(lp4435
sS'sylvan'
p4436
(lp4437
sS'bedbug'
p4438
(lp4439
sg683
(lp4440
g659
ag3060
ag684
asS'window'
p4441
(lp4442
sg1023
(lp4443
g698
ag1021
ag1024
ag47
ag1025
ag1075
ag1076
ag1044
asS'dwarfs'
p4444
(lp4445
sg3076
(lp4446
g4420
ag3074
ag1995
ag2832
asg4428
(lp4447
g3648
asg533
(lp4448
g3481
ag522
ag525
asg1745
(lp4449
g1727
ag376
ag313
asg1771
(lp4450
g1283
ag1772
ag1773
ag1774
asS'pruned'
p4451
(lp4452
S'pruner'
p4453
aS'prunes'
p4454
asS'lonely'
p4455
(lp4456
S'lovely'
p4457
asS'sacred'
p4458
(lp4459
sg1016
(lp4460
g4274
ag4187
ag822
ag3028
ag1014
ag1010
asg1744
(lp4461
g1743
ag1613
ag375
ag313
ag1746
asS'whaler'
p4462
(lp4463
S'whales'
p4464
asS'sooner'
p4465
(lp4466
sg2113
(lp4467
g2109
aS'ration'
p4468
asS'amulet'
p4469
(lp4470
sS'minuet'
p4471
(lp4472
sg4453
(lp4473
g4451
ag4454
asg4454
(lp4474
g4451
ag4453
asS'safari'
p4475
(lp4476
sg3864
(lp4477
g293
aS'sorter'
p4478
asS'bouncy'
p4479
(lp4480
g1491
ag658
asg1912
(lp4481
g1911
ag3756
ag1746
ag1909
asS'barrow'
p4482
(lp4483
S'borrow'
p4484
aS'burrow'
p4485
aS'harrow'
p4486
aS'marrow'
p4487
aS'narrow'
p4488
asS'occult'
p4489
(lp4490
sS'verify'
p4491
(lp4492
S'verily'
p4493
asS'coaxer'
p4494
(lp4495
S'coaxed'
p4496
aS'coaxes'
p4497
asS'clutch'
p4498
(lp4499
g253
asg4213
(lp4500
g1135
asg2583
(lp4501
g2568
asS'slumps'
p4502
(lp4503
g1532
ag2389
asS'bisect'
p4504
(lp4505
sS'bursts'
p4506
(lp4507
S'bursty'
p4508
asg2708
(lp4509
g2400
ag1504
ag2706
asg2737
(lp4510
S'celled'
p4511
ag3966
ag1712
ag1714
ag2733
ag379
ag1913
asg4508
(lp4512
g4506
asS'hijack'
p4513
(lp4514
sS'cliffs'
p4515
(lp4516
sS'locate'
p4517
(lp4518
sS'hinges'
p4519
(lp4520
g3852
ag1448
asg3347
(lp4521
g3321
ag3346
asS'turtle'
p4522
(lp4523
S'hurtle'
p4524
asg1120
(lp4525
g1462
ag1087
ag3945
ag1759
aS'softer'
p4526
asS'domain'
p4527
(lp4528
sS'square'
p4529
(lp4530
S'squire'
p4531
asS'eyelid'
p4532
(lp4533
sS'grouse'
p4534
(lp4535
S'arouse'
p4536
asS'pursue'
p4537
(lp4538
sS'harken'
p4539
(lp4540
S'darken'
p4541
aS'harden'
p4542
asS'fluted'
p4543
(lp4544
sS'saliva'
p4545
(lp4546
sS'repaid'
p4547
(lp4548
S'repair'
p4549
asS'bovine'
p4550
(lp4551
sS'prisms'
p4552
(lp4553
sS'richly'
p4554
(lp4555
sS'unlock'
p4556
(lp4557
sS'replay'
p4558
(lp4559
sS'inhere'
p4560
(lp4561
sg1217
(lp4562
g1215
asS'beetle'
p4563
(lp4564
sg764
(lp4565
g3299
ag762
asS'happen'
p4566
(lp4567
sS'myrtle'
p4568
(lp4569
sS'salads'
p4570
(lp4571
sS'bauble'
p4572
(lp4573
S'babble'
p4574
asg1160
(lp4575
g1483
ag2422
ag1137
ag3212
ag1138
asg500
(lp4576
g498
asg3152
(lp4577
g3151
ag3335
ag3640
ag917
ag3149
asg4126
(lp4578
g3006
aS'giving'
p4579
ag4057
ag3008
ag1271
asS'canvas'
p4580
(lp4581
sS'concur'
p4582
(lp4583
sg4132
(lp4584
S'charts'
p4585
ag4130
asS'rotten'
p4586
(lp4587
S'gotten'
p4588
asS'profit'
p4589
(lp4590
sS'tulips'
p4591
(lp4592
sS'untold'
p4593
(lp4594
S'unfold'
p4595
asg1640
(lp4596
g1638
ag1639
ag4330
ag1530
ag1641
ag1642
asS'astray'
p4597
(lp4598
S'astral'
p4599
asS'ersatz'
p4600
(lp4601
sS'onrush'
p4602
(lp4603
sS'trauma'
p4604
(lp4605
sg799
(lp4606
g1807
aS'smelly'
p4607
ag797
ag1808
ag1804
asg3335
(lp4608
g3334
ag3152
ag3638
ag819
ag916
ag3337
ag1014
asg4045
(lp4609
g3234
ag4044
ag3549
ag4041
aS'posers'
p4610
asg4599
(lp4611
g4597
asS'sensor'
p4612
(lp4613
S'censor'
p4614
aS'senior'
p4615
asS'embalm'
p4616
(lp4617
sS'cloves'
p4618
(lp4619
S'clones'
p4620
aS'closes'
p4621
aS'clover'
p4622
ag853
asg4622
(lp4623
S'clever'
p4624
aS'closer'
p4625
ag4618
aS'glover'
p4626
asS'theory'
p4627
(lp4628
sS'bookie'
p4629
(lp4630
S'cookie'
p4631
aS'rookie'
p4632
asg3372
(lp4633
g3368
ag3373
asg1232
(lp4634
g1228
asg1905
(lp4635
g1902
ag1906
ag3383
asg3743
(lp4636
g3741
ag3739
asS'stroll'
p4637
(lp4638
S'scroll'
p4639
asg2538
(lp4640
g2535
ag2537
asg2082
(lp4641
g2080
asg3337
(lp4642
g3334
ag3335
ag819
ag916
ag920
ag3807
ag824
ag1014
asg663
(lp4643
g660
asS'axioms'
p4644
(lp4645
sS'delude'
p4646
(lp4647
S'deluge'
p4648
aS'deluxe'
p4649
aS'denude'
p4650
asS'envies'
p4651
(lp4652
S'envied'
p4653
asg394
(lp4654
g1235
ag1239
ag1240
ag1241
ag4270
ag4272
ag389
ag3208
ag1242
ag1243
asg1122
(lp4655
g942
asg1830
(lp4656
g1828
asS'pundit'
p4657
(lp4658
sS'idiocy'
p4659
(lp4660
sg2801
(lp4661
g3715
ag3738
ag1577
aS'waiver'
p4662
ag2802
ag2799
asS'widths'
p4663
(lp4664
sS'impose'
p4665
(lp4666
sg430
(lp4667
g429
ag337
ag2225
ag1725
ag2232
ag431
ag346
ag427
asg1448
(lp4668
g1226
ag4519
ag929
ag1449
ag1450
ag1446
ag1451
asg2112
(lp4669
g2111
ag2109
ag2114
asS'unpaid'
p4670
(lp4671
sS'impure'
p4672
(lp4673
S'impute'
p4674
asS'aboard'
p4675
(lp4676
sg4653
(lp4677
g4651
asg1138
(lp4678
g1132
ag1160
ag3212
asg3212
(lp4679
g2564
ag3208
ag1160
ag1138
asS'outcry'
p4680
(lp4681
sS'novice'
p4682
(lp4683
S'notice'
p4684
asg1577
(lp4685
g3713
ag3716
ag366
ag2801
ag3388
ag1574
ag1578
asS'lambda'
p4686
(lp4687
sg3905
(lp4688
g3903
asS'cheese'
p4689
(lp4690
S'cheesy'
p4691
asg1263
(lp4692
g1928
ag2007
ag1264
ag1259
asS'tennis'
p4693
(lp4694
sg1601
(lp4695
g701
ag48
ag3496
ag1273
ag52
ag704
ag1602
ag1046
asS'anomie'
p4696
(lp4697
g175
asg1264
(lp4698
g1263
ag1259
asS'clause'
p4699
(lp4700
sg320
(lp4701
g316
ag314
ag4133
ag2512
asS'twined'
p4702
(lp4703
S'twiner'
p4704
asg1482
(lp4705
g3521
ag331
ag1182
ag332
ag3211
ag1477
ag1774
ag3524
asg580
(lp4706
g577
asS'bluish'
p4707
(lp4708
sS'clumsy'
p4709
(lp4710
sS'errand'
p4711
(lp4712
S'errant'
p4713
asS'pliant'
p4714
(lp4715
sS'chubby'
p4716
(lp4717
sg1192
(lp4718
g1193
ag1190
aS'remote'
p4719
asg4691
(lp4720
S'cheeky'
p4721
ag3015
ag4689
asS'spread'
p4722
(lp4723
sg242
(lp4724
g241
ag1576
ag1363
ag243
ag239
asg1636
(lp4725
g1634
asS'little'
p4726
(lp4727
sS'unlink'
p4728
(lp4729
S'uplink'
p4730
asg1728
(lp4731
g2212
ag1721
asS'falcon'
p4732
(lp4733
sS'swanky'
p4734
(lp4735
sg1460
(lp4736
g1461
ag1458
asg175
(lp4737
g172
ag4696
aS'atomic'
p4738
asS'haggle'
p4739
(lp4740
sS'anyone'
p4741
(lp4742
sg938
(lp4743
g937
ag935
asS'assort'
p4744
(lp4745
g912
asg932
(lp4746
g927
ag1732
ag345
asS'tragic'
p4747
(lp4748
sS'hirers'
p4749
(lp4750
g547
aS'firers'
p4751
asS'dunces'
p4752
(lp4753
S'dances'
p4754
aS'ounces'
p4755
asg658
(lp4756
g4479
ag656
asS'tinily'
p4757
(lp4758
sS'easier'
p4759
(lp4760
g1239
asS'friend'
p4761
(lp4762
sg2910
(lp4763
g2870
ag2909
aS'gainer'
p4764
ag328
ag2833
asS'girder'
p4765
(lp4766
sg3009
(lp4767
g3004
ag3007
ag3008
aS'mixing'
p4768
ag235
ag2718
asg2482
(lp4769
S'deafen'
p4770
ag2483
ag2480
asS'spiral'
p4771
(lp4772
S'spinal'
p4773
asg680
(lp4774
g678
asS'floppy'
p4775
(lp4776
S'sloppy'
p4777
asg987
(lp4778
g985
ag1929
ag3390
ag3391
ag2406
asg2078
(lp4779
g2075
ag2202
asS'refuse'
p4780
(lp4781
S'refuge'
p4782
aS'refute'
p4783
asS'radian'
p4784
(lp4785
S'radial'
p4786
asg2884
(lp4787
g2882
asS'withal'
p4788
(lp4789
sS'enigma'
p4790
(lp4791
sg698
(lp4792
g190
ag699
ag700
ag701
ag696
ag1023
ag1075
ag1076
ag1044
asg1338
(lp4793
g1337
ag2827
ag2420
aS'fouled'
p4794
ag1335
ag1340
asg1726
(lp4795
g1723
ag1724
ag1725
ag604
ag1721
ag169
asg4770
(lp4796
S'deaden'
p4797
ag2482
asg906
(lp4798
S'cities'
p4799
ag965
ag902
ag905
asg2487
(lp4800
S'cranks'
p4801
ag3382
ag1317
asg2968
(lp4802
g2927
ag1976
asS'wreath'
p4803
(lp4804
S'breath'
p4805
asg1285
(lp4806
g943
asg2603
(lp4807
g2600
ag2602
ag259
asS'oilier'
p4808
(lp4809
sS'rubout'
p4810
(lp4811
sS'karate'
p4812
(lp4813
sg4168
(lp4814
g2995
ag1345
ag4165
ag1603
aS'sizing'
p4815
ag4169
asg995
(lp4816
S'feeder'
p4817
ag993
asS'knives'
p4818
(lp4819
S'knaves'
p4820
aS'knifes'
p4821
asS'apples'
p4822
(lp4823
sS'fruits'
p4824
(lp4825
sg3796
(lp4826
g3794
asg2537
(lp4827
g2535
ag2538
asS'permit'
p4828
(lp4829
S'hermit'
p4830
asg2869
(lp4831
g2867
ag2871
asg2703
(lp4832
g2701
aS'furies'
p4833
aS'juries'
p4834
asS'voters'
p4835
(lp4836
sS'sorest'
p4837
(lp4838
S'forest'
p4839
asS'grotto'
p4840
(lp4841
sS'revolt'
p4842
(lp4843
sS'topics'
p4844
(lp4845
g3252
asg2484
(lp4846
g458
ag2480
ag1527
ag3573
ag462
ag4319
ag868
ag2485
asS'turned'
p4847
(lp4848
g2704
aS'turner'
p4849
asg1787
(lp4850
g1785
asS'jewels'
p4851
(lp4852
sg2645
(lp4853
g2644
ag2642
asS'balsam'
p4854
(lp4855
sg1246
(lp4856
g1245
ag1237
ag970
ag1694
ag1242
ag1247
asS'marten'
p4857
(lp4858
sg1746
(lp4859
g1743
ag1613
ag1744
ag313
ag3756
ag1912
ag378
asS'bathed'
p4860
(lp4861
g2029
ag3519
ag3825
ag2010
asg2827
(lp4862
g2823
ag1057
ag357
ag1338
ag4794
ag364
ag2648
asg2644
(lp4863
g2642
ag2645
aS'voided'
p4864
asg4849
(lp4865
S'burner'
p4866
ag4847
asS'humane'
p4867
(lp4868
S'humans'
p4869
asg2833
(lp4870
g2870
ag2909
ag2910
ag2828
ag2832
ag2873
asS'boners'
p4871
(lp4872
g4043
aS'boxers'
p4873
ag4044
asS'gantry'
p4874
(lp4875
S'gentry'
p4876
aS'pantry'
p4877
asg1238
(lp4878
S'cantor'
p4879
aS'captor'
p4880
ag1235
aS'pastor'
p4881
asS'popish'
p4882
(lp4883
S'polish'
p4884
asS'nymphs'
p4885
(lp4886
sg2544
(lp4887
g2543
ag4879
ag2541
aS'carton'
p4888
aS'wanton'
p4889
asS'acumen'
p4890
(lp4891
sg4879
(lp4892
S'candor'
p4893
ag2544
ag4880
ag1238
asS'strafe'
p4894
(lp4895
g742
asg490
(lp4896
g488
asS'pastry'
p4897
(lp4898
S'paltry'
p4899
ag4877
asS'evened'
p4900
(lp4901
sS'pranks'
p4902
(lp4903
g4801
ag4062
ag1039
asg1052
(lp4904
g1652
ag1655
ag1656
ag1657
ag702
ag1050
asg3236
(lp4905
g3233
ag3231
ag1982
ag3598
ag3601
ag90
asS'specks'
p4906
(lp4907
g3896
asg1089
(lp4908
g1084
ag1088
ag379
asS'hooves'
p4909
(lp4910
sS'sterns'
p4911
(lp4912
sg3039
(lp4913
g3036
asS'buffer'
p4914
(lp4915
S'buffet'
p4916
aS'suffer'
p4917
asS'neatly'
p4918
(lp4919
g4008
asg57
(lp4920
g55
asg1017
(lp4921
g513
ag820
ag1012
ag1013
ag1010
ag518
ag2268
asg4916
(lp4922
g4914
asg992
(lp4923
g989
asS'mutton'
p4924
(lp4925
S'button'
p4926
asg755
(lp4927
g753
asg2424
(lp4928
g2184
asg2930
(lp4929
g27
ag4036
ag4038
asg2246
(lp4930
g4043
ag2247
ag2244
asS'upland'
p4931
(lp4932
sS'mullah'
p4933
(lp4934
sg1901
(lp4935
g1899
asS'mettle'
p4936
(lp4937
S'fettle'
p4938
aS'kettle'
p4939
aS'nettle'
p4940
aS'settle'
p4941
asS'forage'
p4942
(lp4943
sg3217
(lp4944
g3215
ag855
asS'hurler'
p4945
(lp4946
S'curler'
p4947
aS'hurled'
p4948
asg3645
(lp4949
S'pricer'
p4950
ag837
ag1443
aS'prizer'
p4951
asS'madras'
p4952
(lp4953
sS'enamel'
p4954
(lp4955
sS'inched'
p4956
(lp4957
S'inches'
p4958
asS'touchy'
p4959
(lp4960
sS'napkin'
p4961
(lp4962
sS'steady'
p4963
(lp4964
S'steamy'
p4965
asS'hungry'
p4966
(lp4967
sS'tabled'
p4968
(lp4969
S'cabled'
p4970
aS'fabled'
p4971
ag1710
aS'tables'
p4972
aS'tablet'
p4973
ag365
asg3684
(lp4974
g3685
ag1696
ag1399
ag3662
ag2816
ag589
asS'sunset'
p4975
(lp4976
S'subset'
p4977
asS'cortex'
p4978
(lp4979
S'vortex'
p4980
asg4948
(lp4981
S'curled'
p4982
ag4945
asg2724
(lp4983
g2722
ag2720
ag2723
ag2760
ag2725
ag2726
asg2677
(lp4984
g2673
ag2676
ag2678
ag2679
asg4615
(lp4985
g4612
asS'diddle'
p4986
(lp4987
S'fiddle'
p4988
ag3341
ag2165
aS'riddle'
p4989
asg457
(lp4990
g455
ag456
ag1399
ag458
ag418
ag459
ag1372
ag1375
asS'convoy'
p4991
(lp4992
S'convey'
p4993
asg4947
(lp4994
g4350
ag4982
ag4945
asS'cornea'
p4995
(lp4996
g1100
aS'cornet'
p4997
asS'cravat'
p4998
(lp4999
sg1633
(lp5000
g1631
asS'rifler'
p5001
(lp5002
S'rifled'
p5003
aS'rifles'
p5004
asS'turgid'
p5005
(lp5006
sg4150
(lp5007
g4148
ag2983
ag4151
asg5004
(lp5008
g5003
ag5001
asg1812
(lp5009
S'curses'
p5010
aS'nurses'
p5011
ag4228
aS'pulses'
p5012
ag2075
ag1811
ag1809
asg1700
(lp5013
g1696
ag10
ag4135
ag4133
ag2331
ag4094
asg1399
(lp5014
g3684
ag3685
ag1696
ag457
ag592
ag1401
asS'raptly'
p5015
(lp5016
sg1100
(lp5017
g1058
ag2033
ag1333
ag4995
ag4997
asS'pinker'
p5018
(lp5019
g2796
ag515
ag2061
aS'tinker'
p5020
ag343
asS'boggle'
p5021
(lp5022
S'toggle'
p5023
asg4982
(lp5024
g3611
ag4947
aS'cursed'
p5025
aS'curved'
p5026
ag4948
asS'woolen'
p5027
(lp5028
S'wooden'
p5029
asS'pivots'
p5030
(lp5031
S'pilots'
p5032
asS'arrack'
p5033
(lp5034
sS'busily'
p5035
(lp5036
sg2343
(lp5037
g159
aS'ratios'
p5038
asg4334
(lp5039
g3488
asS'macros'
p5040
(lp5041
S'micros'
p5042
asS'saints'
p5043
(lp5044
S'faints'
p5045
ag607
asS'enough'
p5046
(lp5047
sg4032
(lp5048
g4030
asS'infers'
p5049
(lp5050
S'inkers'
p5051
asS'debunk'
p5052
(lp5053
sg96
(lp5054
g97
ag98
ag94
asg1693
(lp5055
g2010
ag446
ag1685
ag1731
asS'hockey'
p5056
(lp5057
S'jockey'
p5058
asS'sprout'
p5059
(lp5060
sS'sierra'
p5061
(lp5062
sg5029
(lp5063
g2312
ag5027
asg2533
(lp5064
g2532
ag1037
ag2530
asg1033
(lp5065
g1029
ag1032
ag292
ag293
ag3211
ag1477
ag1483
asS'shrill'
p5066
(lp5067
S'thrill'
p5068
asS'slouch'
p5069
(lp5070
sS'icebox'
p5071
(lp5072
sg1651
(lp5073
g1646
aS'phaser'
p5074
aS'phases'
p5075
asg1209
(lp5076
S'buckle'
p5077
ag98
asg3800
(lp5078
g1851
ag3799
asS'embeds'
p5079
(lp5080
sg2543
(lp5081
S'cannot'
p5082
ag2544
ag2541
asS'taunts'
p5083
(lp5084
S'haunts'
p5085
aS'jaunts'
p5086
asg2431
(lp5087
g3753
ag3735
ag2428
ag1443
ag3736
asg5082
(lp5088
g2543
asg4008
(lp5089
g4007
aS'nearby'
p5090
ag4918
ag4005
ag4010
asS'whence'
p5091
(lp5092
S'thence'
p5093
asg1811
(lp5094
g5025
aS'nursed'
p5095
ag290
ag4372
ag2077
aS'purred'
p5096
ag1809
ag1812
asS'clerks'
p5097
(lp5098
sg3201
(lp5099
g3119
aS'hooker'
p5100
ag3523
aS'hopper'
p5101
asg2069
(lp5102
g3070
ag3102
ag2067
aS'trends'
p5103
asS'wrecks'
p5104
(lp5105
g3073
asg2731
(lp5106
g2730
ag2769
ag632
asg2532
(lp5107
g4216
ag2533
ag2530
asS'nieces'
p5108
(lp5109
S'pieces'
p5110
asS'reveal'
p5111
(lp5112
g4328
asg11
(lp5113
S'feared'
p5114
aS'geared'
p5115
aS'neared'
p5116
ag4023
ag3618
ag9
ag10
ag6
ag2374
ag409
ag3849
ag1836
ag524
ag4135
asS'vagary'
p5117
(lp5118
sS'keenly'
p5119
(lp5120
sS'artist'
p5121
(lp5122
sg1698
(lp5123
g2173
ag10
ag2175
aS'seeped'
p5124
ag2331
asg1663
(lp5125
g1904
ag1661
asS'dramas'
p5126
(lp5127
sg2807
(lp5128
g2806
ag2804
asS'median'
p5129
(lp5130
sg4484
(lp5131
g4482
ag4485
aS'morrow'
p5132
aS'sorrow'
p5133
asS'across'
p5134
(lp5135
sg1733
(lp5136
g1767
aS'duster'
p5137
aS'luster'
p5138
ag1241
ag1732
ag1773
asS'scotch'
p5139
(lp5140
S'scorch'
p5141
asg4091
(lp5142
g4089
asg3592
(lp5143
g120
asS'airily'
p5144
(lp5145
sS'liable'
p5146
(lp5147
S'viable'
p5148
asg5003
(lp5149
g5001
ag5004
asS'entomb'
p5150
(lp5151
sS'vision'
p5152
(lp5153
sg3895
(lp5154
S'sneaky'
p5155
ag3896
ag3893
asS'kernel'
p5156
(lp5157
S'kennel'
p5158
asg1642
(lp5159
g1638
ag1639
ag1640
ag1530
ag1641
ag4332
aS'tenser'
p5160
asS'morose'
p5161
(lp5162
sS'picnic'
p5163
(lp5164
sS'thesis'
p5165
(lp5166
g3722
asg677
(lp5167
g674
ag676
asg1759
(lp5168
g1282
ag1179
ag1757
ag1758
ag1464
ag1183
ag1120
ag3945
ag1760
asS'labors'
p5169
(lp5170
sS'fixate'
p5171
(lp5172
sg1895
(lp5173
g1225
ag1894
ag3732
ag1892
ag1896
asg1340
(lp5174
g1337
ag1338
ag1335
ag2648
ag2443
ag3120
asS'famine'
p5175
(lp5176
sS'doings'
p5177
(lp5178
S'goings'
p5179
asS'fanout'
p5180
(lp5181
sS'asleep'
p5182
(lp5183
sS'flatly'
p5184
(lp5185
sS'stigma'
p5186
(lp5187
sS'pebble'
p5188
(lp5189
sS'purest'
p5190
(lp5191
S'purist'
p5192
asS'august'
p5193
(lp5194
sS'bugles'
p5195
(lp5196
g2966
ag2928
asg2928
(lp5197
g2923
ag2966
ag5195
ag1768
asS'retire'
p5198
(lp5199
S'rewire'
p5200
asg3986
(lp5201
S'defect'
p5202
ag3984
asg411
(lp5203
g406
ag407
ag404
ag1081
ag1082
ag1836
ag532
ag2179
ag1077
ag3377
ag1067
ag412
asS'upsets'
p5204
(lp5205
sS'limber'
p5206
(lp5207
g2449
aS'timber'
p5208
asS'ejects'
p5209
(lp5210
S'elects'
p5211
aS'erects'
p5212
asS'avails'
p5213
(lp5214
sS'hybrid'
p5215
(lp5216
sg446
(lp5217
S'halted'
p5218
ag1685
ag1693
ag443
ag1086
asg3797
(lp5219
g3794
asS'behind'
p5220
(lp5221
sS'bureau'
p5222
(lp5223
sg2966
(lp5224
g2927
ag2928
ag5195
ag3610
asS'kneads'
p5225
(lp5226
sS'import'
p5227
(lp5228
S'impart'
p5229
asS'enjoys'
p5230
(lp5231
S'envoys'
p5232
asS'moaned'
p5233
(lp5234
g1400
aS'mooned'
p5235
asS'checks'
p5236
(lp5237
S'cheeks'
p5238
aS'chicks'
p5239
ag476
aS'chucks'
p5240
asS'caucus'
p5241
(lp5242
sg2760
(lp5243
g2759
ag2448
ag2724
asS'sirens'
p5244
(lp5245
sg4684
(lp5246
g4682
asg3277
(lp5247
g2616
ag3291
ag3293
ag3136
ag3278
ag3279
asg2780
(lp5248
g2196
asS'logins'
p5249
(lp5250
S'logics'
p5251
asS'screen'
p5252
(lp5253
sg2814
(lp5254
g2813
ag712
ag834
aS'planet'
p5255
ag1039
ag939
ag2768
asg2199
(lp5256
g3319
aS'paired'
p5257
ag1896
ag1957
asS'guitar'
p5258
(lp5259
sS'jovial'
p5260
(lp5261
sS'awards'
p5262
(lp5263
sg3508
(lp5264
g2933
ag3509
ag2745
ag3506
asg5086
(lp5265
g5085
aS'jaunty'
p5266
ag5083
asg4799
(lp5267
g906
asg5266
(lp5268
g5086
asS'regret'
p5269
(lp5270
sS'cleave'
p5271
(lp5272
sg522
(lp5273
g3481
ag533
ag523
ag412
ag527
ag528
asg1406
(lp5274
g1404
ag3289
asS'tutors'
p5275
(lp5276
S'tumors'
p5277
asS'jokers'
p5278
(lp5279
sS'sodium'
p5280
(lp5281
S'podium'
p5282
asg782
(lp5283
g777
ag778
ag779
ag775
ag781
ag2032
ag3057
ag783
ag784
asS'blasts'
p5284
(lp5285
S'beasts'
p5286
aS'boasts'
p5287
asg2617
(lp5288
g186
ag699
ag3432
ag3430
ag1822
ag1075
ag234
ag3496
ag703
ag2120
ag2614
asg2715
(lp5289
g2716
ag2713
asS'opcode'
p5290
(lp5291
sg1536
(lp5292
S'dishes'
p5293
aS'fishes'
p5294
ag784
ag3351
aS'wisher'
p5295
asS'inward'
p5296
(lp5297
S'onward'
p5298
asS'reigns'
p5299
(lp5300
S'deigns'
p5301
asS'wheels'
p5302
(lp5303
sg1913
(lp5304
g4511
ag3966
ag1712
ag2737
ag1909
aS'yelped'
p5305
asg830
(lp5306
g214
ag218
ag826
ag831
asS'hempen'
p5307
(lp5308
sg4989
(lp5309
g4986
ag4988
ag3341
ag2165
asS'minima'
p5310
(lp5311
sg1758
(lp5312
g1282
ag1179
ag1757
ag1464
ag1759
ag1760
asg2150
(lp5313
S'colony'
p5314
ag2148
asS'adroit'
p5315
(lp5316
sS'bricks'
p5317
(lp5318
S'pricks'
p5319
ag2488
asg5314
(lp5320
g2150
asS'period'
p5321
(lp5322
sS'insist'
p5323
(lp5324
sg3931
(lp5325
g3929
asS'grants'
p5326
(lp5327
S'giants'
p5328
aS'grafts'
p5329
aS'grands'
p5330
aS'grunts'
p5331
asS'jammed'
p5332
(lp5333
sS'cancel'
p5334
(lp5335
g1106
aS'cannel'
p5336
asg3218
(lp5337
g3215
ag3558
ag2381
ag855
asg100
(lp5338
g94
ag1673
asS'panics'
p5339
(lp5340
sg2732
(lp5341
g632
ag2386
ag3551
ag3316
ag479
asg699
(lp5342
g186
ag698
ag190
ag700
ag701
ag696
ag1657
ag1141
ag3432
ag3430
ag2617
asS'season'
p5343
(lp5344
S'reason'
p5345
asS'olives'
p5346
(lp5347
sg934
(lp5348
g929
ag927
ag243
ag1088
ag1446
asg2526
(lp5349
g3278
ag2524
asg2070
(lp5350
g2067
asg290
(lp5351
g289
ag330
ag4228
ag284
ag2366
ag4229
ag1811
asg3718
(lp5352
S'insert'
p5353
ag808
ag3719
asS'repine'
p5354
(lp5355
S'refine'
p5356
asg3483
(lp5357
g1434
aS'soaked'
p5358
ag3481
ag523
ag524
ag14
ag2377
ag1837
asg3716
(lp5359
g3713
ag3319
ag3738
ag1577
asS'pixels'
p5360
(lp5361
sg4805
(lp5362
S'breach'
p5363
ag4803
asS'votive'
p5364
(lp5365
S'motive'
p5366
asS'cosine'
p5367
(lp5368
sS'thumbs'
p5369
(lp5370
sS'nudity'
p5371
(lp5372
sg3738
(lp5373
g3715
ag4764
ag3716
ag328
ag2801
asS'hardly'
p5374
(lp5375
sS'engine'
p5376
(lp5377
sS'geyser'
p5378
(lp5379
sS'impugn'
p5380
(lp5381
sS'enable'
p5382
(lp5383
g3049
asS'bypass'
p5384
(lp5385
sS'vomits'
p5386
(lp5387
sg1419
(lp5388
S'bobbed'
p5389
ag1416
aS'robber'
p5390
ag1420
asg281
(lp5391
g4420
ag3077
ag3177
ag276
ag273
ag280
ag1995
ag2314
asS'photon'
p5392
(lp5393
S'photos'
p5394
aS'proton'
p5395
asg2894
(lp5396
g2891
asg3657
(lp5397
g2266
asg5394
(lp5398
g5392
asg206
(lp5399
g203
ag1808
ag207
asg3558
(lp5400
g3218
ag2381
ag855
asg1293
(lp5401
g1291
asg2251
(lp5402
S'caters'
p5403
ag2249
ag1983
asS'dahlia'
p5404
(lp5405
sg188
(lp5406
g184
ag186
ag187
aS'buying'
p5407
ag49
ag1820
ag2120
ag1602
asg2380
(lp5408
S'driven'
p5409
ag2383
ag2378
asS'eunuch'
p5410
(lp5411
sg5390
(lp5412
g1419
aS'rubber'
p5413
asg2120
(lp5414
g188
ag49
ag1820
ag1822
ag1075
ag234
ag2617
ag3496
ag703
ag979
ag1602
asS'soothe'
p5415
(lp5416
sS'myself'
p5417
(lp5418
sg4888
(lp5419
g2544
aS'carbon'
p5420
asS'pedant'
p5421
(lp5422
sS'tribal'
p5423
(lp5424
sS'shanty'
p5425
(lp5426
S'scanty'
p5427
asg3019
(lp5428
g3017
asS'rhymes'
p5429
(lp5430
S'rhymed'
p5431
asS'apogee'
p5432
(lp5433
sS'gazers'
p5434
(lp5435
sS'sanded'
p5436
(lp5437
g1223
ag1466
aS'landed'
p5438
ag403
asg1982
(lp5439
g3236
ag3598
ag3601
ag1980
asS'canoes'
p5440
(lp5441
S'canons'
p5442
asS'weaken'
p5443
(lp5444
S'weaker'
p5445
asg5431
(lp5446
g5429
asS'cherub'
p5447
(lp5448
sS'margin'
p5449
(lp5450
sg1511
(lp5451
g1507
ag1505
ag2546
ag1538
ag1512
asg2272
(lp5452
g2269
asg5301
(lp5453
g5299
asg831
(lp5454
g269
ag272
ag830
ag826
asS'zenith'
p5455
(lp5456
sS'rapier'
p5457
(lp5458
sS'shreds'
p5459
(lp5460
g2905
asS'metric'
p5461
(lp5462
sS'strait'
p5463
(lp5464
S'strain'
p5465
asg3341
(lp5466
g4986
ag4988
ag2163
ag860
ag2165
ag4989
asS'sudden'
p5467
(lp5468
g402
asS'ironic'
p5469
(lp5470
sg459
(lp5471
g455
ag456
ag457
ag458
ag418
ag3464
ag4319
aS'weaver'
p5472
asS'wisely'
p5473
(lp5474
S'widely'
p5475
aS'wifely'
p5476
asS'helium'
p5477
(lp5478
sS'abhors'
p5479
(lp5480
sg1081
(lp5481
g1834
ag3862
ag1082
ag411
ag1077
ag634
asS'binary'
p5482
(lp5483
sg793
(lp5484
g791
asS'refill'
p5485
(lp5486
sS'doctor'
p5487
(lp5488
sS'gowned'
p5489
(lp5490
S'downed'
p5491
asg3294
(lp5492
g3291
ag702
ag1276
ag736
asg4110
(lp5493
g3071
ag3086
asS'treble'
p5494
(lp5495
sS'cabana'
p5496
(lp5497
sS'levity'
p5498
(lp5499
sS'motley'
p5500
(lp5501
sS'poetic'
p5502
(lp5503
sS'loudly'
p5504
(lp5505
S'lordly'
p5506
asS'speech'
p5507
(lp5508
sg3153
(lp5509
g3091
aS'pucker'
p5510
ag3149
ag516
ag3028
asS'shifty'
p5511
(lp5512
g3909
asS'subtly'
p5513
(lp5514
S'subtle'
p5515
asS'events'
p5516
(lp5517
sg4830
(lp5518
g4828
asg70
(lp5519
g68
ag4123
ag71
asS'barbed'
p5520
(lp5521
S'barber'
p5522
ag3877
aS'barred'
p5523
aS'garbed'
p5524
asS'finish'
p5525
(lp5526
sS'booths'
p5527
(lp5528
sS'optima'
p5529
(lp5530
sS'arctic'
p5531
(lp5532
sS'assist'
p5533
(lp5534
sS'births'
p5535
(lp5536
S'berths'
p5537
asg2383
(lp5538
g5409
ag2380
ag852
asg4350
(lp5539
g3755
ag3611
ag4947
ag4351
ag3943
ag4348
asS'cheers'
p5540
(lp5541
g5238
ag3015
asS'devoid'
p5542
(lp5543
sS'sieges'
p5544
(lp5545
S'sieves'
p5546
asS'priory'
p5547
(lp5548
S'priori'
p5549
asg3589
(lp5550
g3587
asg1327
(lp5551
g2840
aS'glares'
p5552
ag1326
ag1323
asS'statue'
p5553
(lp5554
g4180
asg3846
(lp5555
g3844
asS'stuffy'
p5556
(lp5557
g4205
asg3611
(lp5558
g3610
ag1709
ag4511
ag4350
ag4982
ag3612
ag1713
ag3614
ag3615
ag3616
asS'disown'
p5559
(lp5560
sS'violet'
p5561
(lp5562
sg2211
(lp5563
g2209
asS'preset'
p5564
(lp5565
sg256
(lp5566
S'belies'
p5567
ag254
aS'relied'
p5568
aS'relief'
p5569
asg4027
(lp5570
S'flakes'
p5571
ag2866
ag4028
ag3174
asg67
(lp5572
g1502
ag1504
ag940
ag65
aS'severe'
p5573
aS'sewers'
p5574
asg944
(lp5575
g3235
ag3601
ag942
ag940
asg3426
(lp5576
g3427
ag3424
aS'always'
p5577
asg3408
(lp5578
g3406
asS'vacant'
p5579
(lp5580
sg1822
(lp5581
g1819
ag1817
ag1075
ag234
ag2617
ag3496
ag703
ag2120
ag1823
asS'breezy'
p5582
(lp5583
S'breeze'
p5584
asS'uproar'
p5585
(lp5586
sg5573
(lp5587
S'revere'
p5588
ag67
asg5584
(lp5589
g5582
aS'freeze'
p5590
asg5571
(lp5591
g4027
ag2841
aS'flares'
p5592
asg5569
(lp5593
S'belief'
p5594
ag5568
ag256
asg3731
(lp5595
g2348
asg3687
(lp5596
g232
ag3007
ag1344
ag4768
asS'truest'
p5597
(lp5598
sS'defers'
p5599
(lp5600
S'refers'
p5601
asg5090
(lp5602
g4008
asS'amazed'
p5603
(lp5604
S'amazer'
p5605
aS'amazes'
p5606
asS'parody'
p5607
(lp5608
sg3060
(lp5609
g3059
ag683
ag3061
ag1408
ag3062
ag3063
ag3064
ag3065
asg1274
(lp5610
S'robins'
p5611
ag1275
ag1269
ag1276
asg2630
(lp5612
g2627
ag2654
asg442
(lp5613
g437
ag438
ag439
ag435
ag440
ag441
asg3073
(lp5614
g3068
ag3071
ag3072
ag5104
asS'bitmap'
p5615
(lp5616
sg1970
(lp5617
g482
ag1969
ag1066
aS'snouts'
p5618
aS'spouts'
p5619
asS'lavish'
p5620
(lp5621
sg2784
(lp5622
g2782
asg1466
(lp5623
g1223
ag1226
ag5438
ag5436
asS'aspect'
p5624
(lp5625
sg4755
(lp5626
g4752
asg4884
(lp5627
g4882
asS'flavor'
p5628
(lp5629
sg2572
(lp5630
g2569
asS'uglier'
p5631
(lp5632
sg2654
(lp5633
g2059
ag2630
aS'guises'
p5634
asg3724
(lp5635
g3327
ag2908
ag3878
ag4068
ag1730
ag329
asg234
(lp5636
g1822
ag1075
ag2617
ag3496
ag703
ag2120
ag229
ag237
asg352
(lp5637
g353
ag350
asg4313
(lp5638
g3445
ag4314
ag4292
asg1106
(lp5639
g5334
ag3328
ag1933
ag1107
ag1104
asS'widest'
p5640
(lp5641
S'wisest'
p5642
asg4416
(lp5643
g4414
ag3509
ag2934
asg2748
(lp5644
g2743
aS'riders'
p5645
ag2935
asS'jarred'
p5646
(lp5647
g5523
aS'warred'
p5648
asS'esprit'
p5649
(lp5650
sS'except'
p5651
(lp5652
sS'churns'
p5653
(lp5654
sS'beagle'
p5655
(lp5656
S'beadle'
p5657
asg2341
(lp5658
g2339
asg3445
(lp5659
g3442
ag4313
ag4289
asg17
(lp5660
g15
aS'person'
p5661
asS'aborts'
p5662
(lp5663
sg2032
(lp5664
g2029
ag2030
ag2031
ag1508
ag782
ag1689
ag1690
ag1535
asS'bleats'
p5665
(lp5666
S'bloats'
p5667
asg473
(lp5668
g470
asg3028
(lp5669
g4274
ag4187
ag822
ag825
ag3153
ag3025
ag1016
asS'joyful'
p5670
(lp5671
sS'nablas'
p5672
(lp5673
sS'styles'
p5674
(lp5675
g4412
ag3486
aS'styled'
p5676
aS'styler'
p5677
aS'stylus'
p5678
asg2705
(lp5679
g2722
ag2701
ag2704
asg397
(lp5680
g391
ag392
ag393
ag389
ag1535
ag784
ag5295
asg637
(lp5681
S'abound'
p5682
ag635
asg2512
(lp5683
g319
ag2511
ag320
ag4136
ag5160
asg5160
(lp5684
g3196
ag1642
ag4136
ag2512
asS'rejoin'
p5685
(lp5686
sg859
(lp5687
g848
aS'hurdle'
p5688
ag860
ag861
asS'crusts'
p5689
(lp5690
g3166
aS'trusts'
p5691
asg1400
(lp5692
g592
ag2548
ag2551
ag5233
asg3882
(lp5693
g3880
ag223
asg1673
(lp5694
g1153
ag2696
ag2523
ag1668
ag100
asg5676
(lp5695
g5677
ag5674
asS'warped'
p5696
(lp5697
g4423
ag2873
ag5648
asg3819
(lp5698
g2995
ag231
ag1343
aS'arming'
p5699
aS'timing'
p5700
asS'globes'
p5701
(lp5702
g853
asS'spigot'
p5703
(lp5704
sg3062
(lp5705
g3059
ag3060
ag3061
ag1408
ag3063
ag3064
ag3065
asS'acidly'
p5706
(lp5707
S'avidly'
p5708
asg1439
(lp5709
S'nerves'
p5710
ag1592
ag1437
aS'served'
p5711
aS'server'
p5712
asg5712
(lp5713
g5711
ag1439
asg1819
(lp5714
g1042
ag191
ag3430
ag1817
ag1822
ag1823
asg3612
(lp5715
g3610
ag3611
ag4351
ag1713
ag3614
ag3615
ag3616
asS'nubile'
p5716
(lp5717
sg2820
(lp5718
g2229
ag2818
ag3367
ag362
ag3346
asS'eerily'
p5719
(lp5720
g4493
asS'glamor'
p5721
(lp5722
S'clamor'
p5723
asS'output'
p5724
(lp5725
sS'upside'
p5726
(lp5727
sg694
(lp5728
g3587
ag3590
ag695
ag692
asg5158
(lp5729
g5156
asS'twelve'
p5730
(lp5731
sg1375
(lp5732
g457
ag1372
aS'meager'
p5733
asS'deduct'
p5734
(lp5735
S'deduce'
p5736
asS'wholes'
p5737
(lp5738
g4464
ag1068
asg4263
(lp5739
g2618
asg2178
(lp5740
g2176
ag1968
asS'splash'
p5741
(lp5742
sS'ascend'
p5743
(lp5744
g911
asg1510
(lp5745
g1505
ag3658
asg5232
(lp5746
g5230
asg482
(lp5747
g480
ag1970
ag5618
ag5619
asg5736
(lp5748
g5734
aS'reduce'
p5749
aS'seduce'
p5750
asg2114
(lp5751
g2111
ag2112
ag2109
asS'bylaws'
p5752
(lp5753
sS'surtax'
p5754
(lp5755
sg5389
(lp5756
g1418
aS'bombed'
p5757
ag1419
asg3006
(lp5758
g3004
ag624
ag4579
ag4126
asg1206
(lp5759
g1204
ag4786
asg624
(lp5760
g622
ag3006
asg911
(lp5761
S'accent'
p5762
ag5743
ag908
asg2971
(lp5763
S'chinks'
p5764
ag2969
aS'things'
p5765
asS'octane'
p5766
(lp5767
S'octave'
p5768
asS'herald'
p5769
(lp5770
sS'squirm'
p5771
(lp5772
g4531
ag1170
asS'temper'
p5773
(lp5774
g731
asS'cavity'
p5775
(lp5776
sg1774
(lp5777
g1283
ag1771
ag1772
ag1773
ag331
ag1182
ag1482
asS'spurns'
p5778
(lp5779
S'spurts'
p5780
asS'fluids'
p5781
(lp5782
sg2488
(lp5783
g5317
ag5319
ag1317
aS'tricky'
p5784
ag2489
asS'clucks'
p5785
(lp5786
g5240
ag2730
ag2772
aS'plucks'
p5787
asg236
(lp5788
g229
ag235
ag2719
asS'inject'
p5789
(lp5790
S'infect'
p5791
aS'insect'
p5792
asg1170
(lp5793
g1168
ag4531
ag5771
asS'staffs'
p5794
(lp5795
S'stiffs'
p5796
ag4205
asS'vetoed'
p5797
(lp5798
S'vetoer'
p5799
aS'vetoes'
p5800
asg332
(lp5801
g291
ag1331
ag293
ag3211
ag1482
ag4478
asg3116
(lp5802
g3115
ag4524
ag3113
asg4106
(lp5803
g1709
aS'calmer'
p5804
ag4104
asg1533
(lp5805
g81
aS'tramps'
p5806
asS'biased'
p5807
(lp5808
S'biases'
p5809
asS'fables'
p5810
(lp5811
S'cables'
p5812
ag4971
aS'gables'
p5813
aS'sables'
p5814
ag4972
asg402
(lp5815
g2014
ag398
ag5467
asg4511
(lp5816
g1709
ag3611
ag3966
ag1712
ag2737
ag1913
asg4786
(lp5817
g1206
ag4784
asS'broker'
p5818
(lp5819
S'booker'
p5820
aS'broken'
p5821
asS'robots'
p5822
(lp5823
sS'squall'
p5824
(lp5825
sg5821
(lp5826
g5818
asg5667
(lp5827
g5665
aS'floats'
p5828
asg4971
(lp5829
g4970
ag5810
ag357
ag1710
ag4968
asg5809
(lp5830
g5807
asg5804
(lp5831
g3755
ag4106
ag4107
asg2496
(lp5832
g2243
ag3434
ag964
ag2425
asS'bazaar'
p5833
(lp5834
sS'sullen'
p5835
(lp5836
sg3958
(lp5837
S'poorer'
p5838
ag3622
ag3935
asS'giggle'
p5839
(lp5840
sg1262
(lp5841
g634
ag2007
ag3377
ag1083
ag1259
asg2646
(lp5842
g2642
ag4864
asg3902
(lp5843
g3899
asS'choirs'
p5844
(lp5845
S'chairs'
p5846
asS'fringe'
p5847
(lp5848
S'cringe'
p5849
asS'shrimp'
p5850
(lp5851
sg2602
(lp5852
g2600
ag3525
ag2603
ag259
asS'boldly'
p5853
(lp5854
S'baldly'
p5855
aS'coldly'
p5856
asg4351
(lp5857
g4350
ag3612
ag3943
ag4348
asS'rumpus'
p5858
(lp5859
sg1699
(lp5860
g10
ag2372
ag2411
ag2373
ag2374
ag598
asg807
(lp5861
g805
ag3628
ag808
asg4704
(lp5862
g4702
asS'backup'
p5863
(lp5864
sg2491
(lp5865
g1361
ag1480
ag1362
ag1481
aS'wetted'
p5866
asg3799
(lp5867
g1851
ag3800
asS'ladies'
p5868
(lp5869
sS'dagger'
p5870
(lp5871
g2925
ag1749
aS'digger'
p5872
asg2975
(lp5873
g2275
asg5010
(lp5874
g5025
aS'curves'
p5875
ag5011
ag1812
asS'coupon'
p5876
(lp5877
sg892
(lp5878
S'quaker'
p5879
ag890
asg2489
(lp5880
g1317
ag2488
ag2094
asS'splint'
p5881
(lp5882
S'spline'
p5883
aS'sprint'
p5884
asg1119
(lp5885
g1118
ag1462
ag3781
ag1087
asS'legged'
p5886
(lp5887
g2963
aS'logged'
p5888
asS'copies'
p5889
(lp5890
S'copied'
p5891
ag2302
asg5025
(lp5892
g4982
ag5010
ag5026
ag5095
ag1811
asg4773
(lp5893
g4771
asg1467
(lp5894
g1749
aS'hangar'
p5895
ag1226
aS'hunger'
p5896
ag1747
ag1751
asg4167
(lp5897
g4165
asg1863
(lp5898
g1861
aS'livery'
p5899
ag4457
asg8
(lp5900
g2816
ag611
ag865
ag462
ag588
ag6
asg1088
(lp5901
g1084
ag378
ag934
ag1089
asS'annoys'
p5902
(lp5903
sS'lastly'
p5904
(lp5905
S'vastly'
p5906
asS'feudal'
p5907
(lp5908
sg2871
(lp5909
g2869
ag2867
ag5491
ag3732
asS'bubbly'
p5910
(lp5911
S'bubble'
p5912
asg271
(lp5913
g2786
ag213
ag269
ag270
ag215
ag2959
aS'gratis'
p5914
asg2959
(lp5915
g2789
ag828
ag215
ag271
ag2960
ag2961
ag1328
asg5764
(lp5916
g5239
aS'chunks'
p5917
ag2971
asg4833
(lp5918
g2703
ag4834
asg1807
(lp5919
g799
ag1808
ag1804
asS'sprees'
p5920
(lp5921
sg5491
(lp5922
g2871
ag5489
asS'jigsaw'
p5923
(lp5924
sg2014
(lp5925
g401
aS'madmen'
p5926
ag2012
ag402
asS'trumps'
p5927
(lp5928
g5806
asg3727
(lp5929
S'decade'
p5930
aS'decide'
p5931
ag3725
asg401
(lp5932
g400
ag2014
ag398
asg3622
(lp5933
g3958
ag1483
ag3932
ag3936
asS'futile'
p5934
(lp5935
sS'italic'
p5936
(lp5937
sS'nitric'
p5938
(lp5939
sS'slopes'
p5940
(lp5941
g3664
aS'sloped'
p5942
ag3884
asg3884
(lp5943
g5942
ag5940
ag1867
asg5912
(lp5944
g4574
ag5910
ag1736
aS'rubble'
p5945
asS'strict'
p5946
(lp5947
sS'morass'
p5948
(lp5949
g4072
asS'sorrel'
p5950
(lp5951
sS'unison'
p5952
(lp5953
sS'eraser'
p5954
(lp5955
S'erased'
p5956
aS'erases'
p5957
asS'mourns'
p5958
(lp5959
sg3390
(lp5960
g987
ag3391
ag2406
asS'beheld'
p5961
(lp5962
S'behead'
p5963
aS'behold'
p5964
asS'coolie'
p5965
(lp5966
S'collie'
p5967
ag4631
asS'tripod'
p5968
(lp5969
sS'cloned'
p5970
(lp5971
g4620
aS'closed'
p5972
asg3016
(lp5973
g3013
asg2719
(lp5974
g236
ag2718
ag1348
asg5787
(lp5975
g5785
aS'plucky'
p5976
asg1976
(lp5977
g1222
ag1975
ag1973
ag1227
ag2968
ag1977
asS'omelet'
p5978
(lp5979
sg4620
(lp5980
g5970
ag4621
ag4618
asS'shrugs'
p5981
(lp5982
S'shrubs'
p5983
asS'crocus'
p5984
(lp5985
g3382
asg5407
(lp5986
g188
ag3741
aS'guying'
p5987
asS'longer'
p5988
(lp5989
g1923
ag651
aS'logger'
p5990
aS'longed'
p5991
asS'abused'
p5992
(lp5993
g1816
aS'abuses'
p5994
aS'amused'
p5995
asg3239
(lp5996
g2046
asg4541
(lp5997
g2908
ag4539
asg3691
(lp5998
g1097
ag310
ag3610
asg1027
(lp5999
g1021
ag1026
ag1028
asg501
(lp6000
g502
ag498
asS'comics'
p6001
(lp6002
sS'reflex'
p6003
(lp6004
sS'strobe'
p6005
(lp6006
g972
ag745
aS'strove'
p6007
asS'bucket'
p6008
(lp6009
g4274
asg1434
(lp6010
g408
ag409
ag5358
ag3483
asS'tiptoe'
p6011
(lp6012
sg4000
(lp6013
g3998
ag4001
asg5200
(lp6014
g5198
asg4674
(lp6015
g4672
asg5994
(lp6016
g1793
ag5992
aS'amuses'
p6017
asS'turnip'
p6018
(lp6019
sg4274
(lp6020
g3334
ag6008
ag3027
ag4187
ag822
ag3028
ag1016
asg2908
(lp6021
g3327
ag4541
ag2870
ag327
ag3724
ag329
asg3578
(lp6022
g2648
ag2853
asg1113
(lp6023
g1111
aS'carved'
p6024
aS'carver'
p6025
ag5875
asg6025
(lp6026
g2036
aS'career'
p6027
ag326
ag6024
ag1113
asg591
(lp6028
g3685
ag589
ag590
ag592
ag593
ag317
ag552
ag2625
asg4151
(lp6029
g4148
ag4150
ag2984
asS'cinema'
p6030
(lp6031
sS'pseudo'
p6032
(lp6033
sg4970
(lp6034
g5812
ag1709
ag4971
ag1710
ag4968
asg4614
(lp6035
g4612
asg28
(lp6036
g27
ag2673
ag2675
ag29
ag25
asS'behest'
p6037
(lp6038
sg3769
(lp6039
g1708
ag2826
asg6024
(lp6040
g286
ag6025
ag1113
ag5026
asS'peered'
p6041
(lp6042
g2626
ag614
aS'peeped'
p6043
aS'veered'
p6044
asS'sheath'
p6045
(lp6046
sS'merest'
p6047
(lp6048
sg5995
(lp6049
g5992
aS'amuser'
p6050
ag6017
asg5812
(lp6051
g4970
ag5810
ag5813
ag5814
ag4972
asS'bishop'
p6052
(lp6053
sg761
(lp6054
g756
ag760
ag38
ag3175
ag2562
ag2563
ag2422
asg5967
(lp6055
g5965
asg3233
(lp6056
g3600
ag5403
ag3231
ag3236
ag90
asS'drafts'
p6057
(lp6058
S'crafts'
p6059
aS'drafty'
p6060
aS'drifts'
p6061
ag5329
asS'rumple'
p6062
(lp6063
g1740
aS'rumply'
p6064
asS'piracy'
p6065
(lp6066
sS'compel'
p6067
(lp6068
sg4329
(lp6069
S'recent'
p6070
aS'regent'
p6071
aS'relent'
p6072
ag4326
aS'resent'
p6073
asg1714
(lp6074
g1708
ag1709
ag1706
ag366
aS'walked'
p6075
ag1098
ag2737
ag379
asg5413
(lp6076
g5390
ag1420
asg2372
(lp6077
g2410
ag1699
ag2373
ag2374
ag598
ag1835
asg5991
(lp6078
g650
ag5888
ag5988
aS'lunged'
p6079
asg4464
(lp6080
g4462
ag5737
asg1971
(lp6081
g1066
ag410
ag5618
ag1972
asS'woeful'
p6082
(lp6083
sS'suites'
p6084
(lp6085
g1083
ag2008
asS'repute'
p6086
(lp6087
g4783
asS'unload'
p6088
(lp6089
S'upload'
p6090
asS'perils'
p6091
(lp6092
sS'symbol'
p6093
(lp6094
sS'vertex'
p6095
(lp6096
g4980
asg2191
(lp6097
g2189
asg241
(lp6098
g3193
ag242
ag243
ag239
asg2003
(lp6099
g1638
ag1110
ag1949
ag403
ag340
asg1046
(lp6100
g701
ag48
ag3496
ag1273
ag1601
ag1040
ag1044
ag195
ag1045
ag1047
asS'oracle'
p6101
(lp6102
sS'brandy'
p6103
(lp6104
g988
asg3549
(lp6105
g2041
ag3548
ag1504
ag2934
ag4044
ag4045
ag4041
ag3550
asg3268
(lp6106
g3267
ag3265
asS'gayest'
p6107
(lp6108
sg2008
(lp6109
g2004
ag6084
asg988
(lp6110
g985
ag6103
ag5330
asS'velvet'
p6111
(lp6112
sS'spouse'
p6113
(lp6114
sS'itches'
p6115
(lp6116
g4958
asS'finals'
p6117
(lp6118
sS'trusty'
p6119
(lp6120
g5691
asS'fiscal'
p6121
(lp6122
sg1885
(lp6123
g3662
ag1883
ag1529
asS'dabble'
p6124
(lp6125
g4574
aS'dibble'
p6126
aS'rabble'
p6127
asg4719
(lp6128
g1192
aS'remove'
p6129
asS'assets'
p6130
(lp6131
S'assess'
p6132
asS'chords'
p6133
(lp6134
g1064
aS'chorus'
p6135
asS'visits'
p6136
(lp6137
sg3719
(lp6138
S'incest'
p6139
aS'infest'
p6140
aS'ingest'
p6141
ag808
ag3718
asg1934
(lp6142
g1932
ag1933
ag1750
ag3330
asS'apathy'
p6143
(lp6144
sg4820
(lp6145
g4818
asg1965
(lp6146
g1963
asg4639
(lp6147
g4637
asg4485
(lp6148
g4482
ag4484
aS'furrow'
p6149
asg5820
(lp6150
g758
ag5818
ag5100
ag956
asS'hugely'
p6151
(lp6152
sg979
(lp6153
g978
ag976
ag2120
ag980
asS'sensed'
p6154
(lp6155
g2511
ag4136
asg4649
(lp6156
g4646
ag4648
asg2061
(lp6157
g2796
ag5018
ag516
ag1925
ag2096
ag1944
ag5020
ag343
asg4662
(lp6158
g2801
ag3388
aS'waives'
p6159
asg6159
(lp6160
g3388
ag4662
asg1504
(lp6161
g1502
ag2708
ag2400
ag2934
ag3549
ag67
asg278
(lp6162
g1947
ag273
ag277
ag279
ag4335
asg277
(lp6163
g1946
ag273
ag278
ag279
ag1995
asg279
(lp6164
g273
ag277
ag278
ag1469
asg316
(lp6165
g1648
ag1650
ag314
ag320
asg1582
(lp6166
S'vaguer'
p6167
ag1580
ag1583
asg468
(lp6168
g466
ag469
ag4229
asS'beware'
p6169
(lp6170
sS'gouged'
p6171
(lp6172
S'gauged'
p6173
ag4337
asS'dollar'
p6174
(lp6175
S'collar'
p6176
asS'bosoms'
p6177
(lp6178
sg1005
(lp6179
g1006
ag1003
asg1648
(lp6180
g316
ag1646
ag317
ag4133
asS'scalar'
p6181
(lp6182
sS'debris'
p6183
(lp6184
sg5515
(lp6185
g5513
asS'barons'
p6186
(lp6187
S'barony'
p6188
aS'batons'
p6189
asS'upkeep'
p6190
(lp6191
sS'abject'
p6192
(lp6193
S'object'
p6194
asg2675
(lp6195
g2673
ag28
ag2990
asg5691
(lp6196
g5689
ag6119
asg2465
(lp6197
g2436
asg469
(lp6198
g468
ag466
ag4098
asg6188
(lp6199
g6186
asS'violin'
p6200
(lp6201
sg4889
(lp6202
g2544
asg3618
(lp6203
g3449
ag406
ag2519
ag11
ag2374
ag409
ag3849
ag1836
ag524
asS'homage'
p6204
(lp6205
sg3008
(lp6206
g3004
ag3007
ag4057
ag4126
ag3009
ag235
ag2718
asg3834
(lp6207
g3832
asg1995
(lp6208
g3076
ag3074
ag1946
ag277
ag281
asg3210
(lp6209
g1240
aS'footer'
p6210
ag3211
ag3208
asg5212
(lp6211
g5209
ag5211
asS'bilked'
p6212
(lp6213
g3767
ag373
ag3027
ag376
asS'fervor'
p6214
(lp6215
sg2563
(lp6216
g2560
ag761
ag2564
asg2366
(lp6217
g2499
ag1692
ag290
aS'passer'
p6218
ag2418
ag292
ag4229
asg3252
(lp6219
g4844
ag3250
asS'flowed'
p6220
(lp6221
g3174
ag2579
aS'glowed'
p6222
aS'plowed'
p6223
ag1846
asS'bestir'
p6224
(lp6225
sg1870
(lp6226
g1281
ag1178
ag1869
ag1731
ag331
ag1242
ag1760
ag3524
asS'valets'
p6227
(lp6228
sS'parcel'
p6229
(lp6230
sg4043
(lp6231
g4871
ag2246
ag4873
ag3547
ag4041
ag4046
ag4047
asS'rhesus'
p6232
(lp6233
sS'peruse'
p6234
(lp6235
sS'horror'
p6236
(lp6237
sS'grinds'
p6238
(lp6239
g5330
asg91
(lp6240
g940
ag89
ag90
ag87
asS'queasy'
p6241
(lp6242
sS'induce'
p6243
(lp6244
S'induct'
p6245
asg5757
(lp6246
g5389
ag840
aS'combed'
p6247
asS'oxides'
p6248
(lp6249
sg1136
(lp6250
g1159
ag1132
asS'evince'
p6251
(lp6252
sS'candid'
p6253
(lp6254
sg5711
(lp6255
g5712
ag1439
asg931
(lp6256
g4330
ag930
ag927
ag342
asg5931
(lp6257
g5930
ag3727
ag4426
asS'bleach'
p6258
(lp6259
g5363
asg1015
(lp6260
g918
ag1010
ag517
asS'soften'
p6261
(lp6262
g4526
asg517
(lp6263
g512
ag510
ag514
ag515
ag516
ag1010
ag1015
ag5020
ag518
asg5100
(lp6264
g5820
ag3512
ag3201
ag3523
ag956
asg1654
(lp6265
g1652
asg6245
(lp6266
S'indict'
p6267
ag6243
asg568
(lp6268
g588
ag4319
ag551
ag553
asS'dampen'
p6269
(lp6270
g728
asg1571
(lp6271
g1569
asg858
(lp6272
g848
ag5688
asg4010
(lp6273
g4007
ag4008
ag4005
asg1820
(lp6274
g188
ag49
ag1817
ag1043
ag1026
ag1821
ag2120
ag1602
asg2839
(lp6275
g2836
ag2834
ag2865
ag2840
ag5592
ag5552
asS'outrun'
p6276
(lp6277
sg1588
(lp6278
g1586
ag1589
asg238
(lp6279
g231
ag232
ag233
ag229
ag4169
ag5700
ag1347
asS'adjust'
p6280
(lp6281
sg2485
(lp6282
g458
ag2480
ag2484
ag868
ag5445
ag5472
asg728
(lp6283
g727
ag6269
ag2448
ag729
ag725
ag731
asg2865
(lp6284
g2837
ag2839
ag1354
ag4028
ag1355
asg1454
(lp6285
g1452
ag651
asg551
(lp6286
g588
ag568
ag4319
ag318
ag555
asg4319
(lp6287
g459
ag1527
ag3573
ag2484
ag462
ag588
ag568
ag551
ag5472
asg3741
(lp6288
g187
ag5407
ag3739
ag3743
asg4821
(lp6289
S'knifed'
p6290
ag4818
asS'rudely'
p6291
(lp6292
sg3664
(lp6293
g3619
ag1065
ag5940
asg3615
(lp6294
g3610
ag3611
ag3612
ag1713
ag3614
ag3616
asg1203
(lp6295
g1201
aS'flinch'
p6296
asg611
(lp6297
g2816
ag3573
ag865
ag8
ag588
ag609
aS'pealed'
p6298
ag9
asg362
(lp6299
g357
ag358
ag359
ag360
ag361
ag3320
ag2820
ag1957
ag3321
ag355
ag365
ag366
asS'orgasm'
p6300
(lp6301
sg6290
(lp6302
g4821
asS'design'
p6303
(lp6304
S'resign'
p6305
asS'lawyer'
p6306
(lp6307
sS'enjoin'
p6308
(lp6309
sg3573
(lp6310
g2483
ag1527
ag611
ag2484
ag462
ag4319
ag3574
asS'casual'
p6311
(lp6312
sg3166
(lp6313
g666
ag5689
asS'cigars'
p6314
(lp6315
sg4542
(lp6316
S'garden'
p6317
ag1962
ag4539
ag2831
asg840
(lp6318
g5757
ag841
ag838
asg3862
(lp6319
g1834
ag1081
ag532
asg1847
(lp6320
g601
ag1846
ag2517
ag1848
asS'deeply'
p6321
(lp6322
sg3487
(lp6323
g479
ag529
ag3488
asg2551
(lp6324
g590
ag2548
aS'loafer'
p6325
ag1400
asS'rascal'
p6326
(lp6327
sg2052
(lp6328
g817
ag3144
ag2037
ag1333
ag280
ag2313
asS'warmth'
p6329
(lp6330
sS'public'
p6331
(lp6332
sS'pulpit'
p6333
(lp6334
sg1333
(lp6335
g2033
ag2052
ag1100
ag1331
ag1334
asS'jurist'
p6336
(lp6337
g5192
asS'muslin'
p6338
(lp6339
sg734
(lp6340
g45
ag2862
ag2860
ag732
ag736
asg1806
(lp6341
g1804
asS'basely'
p6342
(lp6343
g3344
asg1227
(lp6344
g1220
ag1226
ag1976
ag1751
aS'ranges'
p6345
ag3807
ag1576
ag1449
asg5427
(lp6346
g5425
asS'modify'
p6347
(lp6348
S'codify'
p6349
asg3752
(lp6350
g3751
ag3286
asg2101
(lp6351
g2098
asg6345
(lp6352
g1227
ag1751
asg1751
(lp6353
g1749
ag1467
ag1747
ag1227
ag6345
ag3329
ag4272
ag1924
asg2088
(lp6354
g2086
asS'uneven'
p6355
(lp6356
sS'egging'
p6357
(lp6358
S'edging'
p6359
asS'depend'
p6360
(lp6361
S'defend'
p6362
asS'goodby'
p6363
(lp6364
S'goodly'
p6365
asg3787
(lp6366
g3785
ag354
asS'legend'
p6367
(lp6368
sg2960
(lp6369
g3464
ag828
ag2959
ag844
aS'graven'
p6370
ag2961
ag1328
asg1178
(lp6371
g1281
ag1612
ag1240
ag3520
ag3694
ag1176
ag1179
ag1869
ag1731
ag331
ag1870
asg5115
(lp6372
g5114
ag1355
ag5116
ag4023
ag11
ag4135
asg4260
(lp6373
g4258
asS'stupor'
p6374
(lp6375
sg2751
(lp6376
g4217
aS'creeks'
p6377
ag2749
asg2967
(lp6378
g2965
ag2927
ag3027
ag3610
asS'psalms'
p6379
(lp6380
sS'heifer'
p6381
(lp6382
sS'enmity'
p6383
(lp6384
S'entity'
p6385
asg4282
(lp6386
g669
ag3057
ag889
ag2689
aS'tosses'
p6387
asg3429
(lp6388
g3428
ag3424
asg5345
(lp6389
g5343
asS'brutal'
p6390
(lp6391
sS'gleams'
p6392
(lp6393
S'gleans'
p6394
asS'amount'
p6395
(lp6396
sS'heroin'
p6397
(lp6398
S'herein'
p6399
aS'heroic'
p6400
asg2746
(lp6401
g2743
asS'action'
p6402
(lp6403
sg1846
(lp6404
g6220
ag6222
ag6223
ag601
ag5942
ag1867
ag1847
ag1848
asg4488
(lp6405
g4482
ag4486
ag4487
asg3694
(lp6406
g1679
ag2309
ag1178
asg2323
(lp6407
g2321
aS'exiled'
p6408
asS'medics'
p6409
(lp6410
sS'stably'
p6411
(lp6412
S'stable'
p6413
asS'depart'
p6414
(lp6415
g2259
asg3619
(lp6416
g3664
ag2519
ag5942
asS'family'
p6417
(lp6418
sg376
(lp6419
g6212
ag1745
ag312
asg3327
(lp6420
g3151
ag572
ag5522
ag3877
ag325
ag2908
ag3724
ag329
asS'airway'
p6421
(lp6422
sS'planar'
p6423
(lp6424
g834
asS'sadist'
p6425
(lp6426
S'sadism'
p6427
asg6064
(lp6428
g6062
asS'glitch'
p6429
(lp6430
sS'chunky'
p6431
(lp6432
g5917
asg64
(lp6433
g62
asg4880
(lp6434
g4879
ag1238
asg6427
(lp6435
g6425
asg5917
(lp6436
g5764
ag5240
ag6431
asS'drippy'
p6437
(lp6438
sg3877
(lp6439
g3334
ag3767
ag1224
ag5520
ag3327
ag5523
ag4159
ag3878
ag289
asS'yeomen'
p6440
(lp6441
S'yeoman'
p6442
asg4368
(lp6443
g3047
ag4369
asS'helper'
p6444
(lp6445
S'helped'
p6446
asg3461
(lp6447
g3459
ag3974
asg6349
(lp6448
g6347
asg2523
(lp6449
g1153
ag2696
ag2520
ag1673
asg3997
(lp6450
g3994
asS'uphill'
p6451
(lp6452
sS'rustic'
p6453
(lp6454
sS'linear'
p6455
(lp6456
sS'hereof'
p6457
(lp6458
sS'freest'
p6459
(lp6460
sS'widens'
p6461
(lp6462
sg4751
(lp6463
g547
aS'fibers'
p6464
aS'fixers'
p6465
ag4749
asg689
(lp6466
g4253
ag13
ag1080
ag687
ag691
asg5329
(lp6467
g6059
ag6057
ag5326
asS'hurrah'
p6468
(lp6469
sS'twists'
p6470
(lp6471
sg3768
(lp6472
g1708
asS'teethe'
p6473
(lp6474
S'seethe'
p6475
asg20
(lp6476
g18
ag1134
asg2684
(lp6477
S'hissed'
p6478
ag2685
ag2682
asg703
(lp6479
g696
ag1822
ag1075
ag234
ag2617
ag3496
ag2120
ag704
asS'splice'
p6480
(lp6481
g5883
asg1110
(lp6482
g2003
ag400
ag1104
ag5438
ag2830
ag1639
ag1949
ag403
ag340
asS'rhythm'
p6483
(lp6484
sg3983
(lp6485
g3296
ag869
ag3254
ag1242
ag1364
asS'alcove'
p6486
(lp6487
sg90
(lp6488
g3233
ag3231
ag3236
ag89
ag91
ag87
asS'grimly'
p6489
(lp6490
S'grisly'
p6491
aS'trimly'
p6492
asS'soiree'
p6493
(lp6494
sg869
(lp6495
g3296
ag463
ag1358
ag870
ag3254
ag3983
asg5240
(lp6496
g5236
ag5239
ag476
ag5917
ag5785
asS'mutely'
p6497
(lp6498
sS'excuse'
p6499
(lp6500
g2633
asg5438
(lp6501
g1223
ag1466
ag1108
ag1110
ag5436
asS'shaggy'
p6502
(lp6503
sg6491
(lp6504
g6489
asg6478
(lp6505
g2684
aS'kissed'
p6506
ag2688
asg6370
(lp6507
S'craven'
p6508
ag844
ag2960
asS'coyote'
p6509
(lp6510
sg29
(lp6511
g27
ag28
ag25
asg5235
(lp6512
g5233
aS'moored'
p6513
asg4815
(lp6514
g4168
ag1603
asS'fleece'
p6515
(lp6516
S'fleecy'
p6517
asS'gauche'
p6518
(lp6519
sS'thorns'
p6520
(lp6521
S'thorny'
p6522
asg5465
(lp6523
S'sprain'
p6524
ag5463
asS'quilts'
p6525
(lp6526
S'quiets'
p6527
asS'sentry'
p6528
(lp6529
g4876
asS'chisel'
p6530
(lp6531
sg2425
(lp6532
g2243
ag2496
ag2184
asS'thirds'
p6533
(lp6534
sS'retype'
p6535
(lp6536
sS'guards'
p6537
(lp6538
sg1093
(lp6539
g1092
ag134
asS'caveat'
p6540
(lp6541
sS'obtain'
p6542
(lp6543
sg3759
(lp6544
g4084
ag3548
aS'novels'
p6545
asg6517
(lp6546
g6515
asS'sleuth'
p6547
(lp6548
sg3809
(lp6549
g1224
ag3807
asS'palest'
p6550
(lp6551
sS'prompt'
p6552
(lp6553
sg1086
(lp6554
g5218
ag446
ag3032
ag1084
asg1538
(lp6555
g670
ag780
ag1509
ag1511
ag2546
ag1539
asS'gallop'
p6556
(lp6557
S'gallon'
p6558
asg429
(lp6559
g335
ag1723
aS'bonded'
p6560
ag2035
ag430
ag431
ag346
ag427
asS'joints'
p6561
(lp6562
g608
asS'skunks'
p6563
(lp6564
S'skulks'
p6565
asS'accept'
p6566
(lp6567
g5762
asg4864
(lp6568
g2644
ag2646
asS'autumn'
p6569
(lp6570
sS'coerce'
p6571
(lp6572
sg1977
(lp6573
g1222
ag1975
ag1973
ag1976
asg3032
(lp6574
g1612
ag3031
ag1086
ag167
asS'attain'
p6575
(lp6576
sS'despot'
p6577
(lp6578
sg6558
(lp6579
g6556
asg3035
(lp6580
g3033
asg6560
(lp6581
g1223
ag429
asS'firmly'
p6582
(lp6583
sg1064
(lp6584
S'chokes'
p6585
ag6133
ag6135
ag1062
ag1068
asS'dazzle'
p6586
(lp6587
sg3102
(lp6588
g3070
ag3087
ag2069
asS'unties'
p6589
(lp6590
S'untied'
p6591
asS'sicken'
p6592
(lp6593
g516
aS'silken'
p6594
asg395
(lp6595
g3519
ag3520
ag3517
ag389
asS'serums'
p6596
(lp6597
sS'thieve'
p6598
(lp6599
sg649
(lp6600
g265
aS'ledger'
p6601
ag647
aS'wedges'
p6602
asg6601
(lp6603
g649
ag651
asg2696
(lp6604
g1153
ag1672
ag2523
ag1673
asS'magpie'
p6605
(lp6606
sS'reruns'
p6607
(lp6608
sg2252
(lp6609
g2275
ag3066
ag2249
asS'cajole'
p6610
(lp6611
sS'reject'
p6612
(lp6613
sg3635
(lp6614
g4084
ag2897
asg119
(lp6615
g120
ag121
ag117
asS'pogrom'
p6616
(lp6617
sS'ignore'
p6618
(lp6619
sS'tinier'
p6620
(lp6621
g5020
asg5549
(lp6622
g5547
asS'anoint'
p6623
(lp6624
sg547
(lp6625
g545
ag4751
ag4749
asg3071
(lp6626
g3068
ag4110
ag3101
ag6377
ag3379
ag3072
ag3073
asS'numbed'
p6627
(lp6628
g2450
asS'advice'
p6629
(lp6630
S'advise'
p6631
asS'rogues'
p6632
(lp6633
sS'orbits'
p6634
(lp6635
sS'frills'
p6636
(lp6637
S'drills'
p6638
aS'grills'
p6639
asg6090
(lp6640
g6088
asS'fungus'
p6641
(lp6642
sS'heckle'
p6643
(lp6644
sg2745
(lp6645
g3508
ag3509
ag3415
ag2743
ag2747
ag3506
asg1655
(lp6646
g1652
ag1052
ag1656
ag1657
ag702
ag3134
asS'ethics'
p6647
(lp6648
sg4777
(lp6649
g4775
asg2353
(lp6650
g2351
asS'rotund'
p6651
(lp6652
sg2879
(lp6653
g2877
asS'humbug'
p6654
(lp6655
sg5330
(lp6656
g988
aS'glands'
p6657
ag5326
ag6238
asg4648
(lp6658
g4646
ag4649
asg6210
(lp6659
g2420
ag3210
ag3523
ag957
ag2564
asS'fallen'
p6660
(lp6661
sg2956
(lp6662
g109
asS'author'
p6663
(lp6664
sg5510
(lp6665
g3091
ag917
ag515
ag3153
asg4650
(lp6666
g4646
asS'artful'
p6667
(lp6668
S'armful'
p6669
asS'dragon'
p6670
(lp6671
sg2420
(lp6672
g759
ag1338
ag6210
ag2421
ag40
ag2422
asS'swords'
p6673
(lp6674
sS'gloomy'
p6675
(lp6676
sg451
(lp6677
g449
aS'spends'
p6678
asg6059
(lp6679
S'crafty'
p6680
ag6057
ag5329
asg3519
(lp6681
g4860
ag3825
ag1281
aS'bother'
p6682
ag3520
ag3517
ag395
asg3825
(lp6683
g777
ag4860
ag3519
ag3823
asS'mortem'
p6684
(lp6685
sg3070
(lp6686
g3068
ag4214
ag3102
ag2069
asg6680
(lp6687
g6059
ag6060
asg794
(lp6688
g3598
ag791
ag1376
ag1378
asg5239
(lp6689
g5236
ag5764
ag476
ag5240
ag2730
asS'infant'
p6690
(lp6691
sg3254
(lp6692
g3296
ag869
ag1182
ag3255
ag3211
ag3983
asS'gauges'
p6693
(lp6694
g6173
ag4337
asS'arbors'
p6695
(lp6696
sS'stains'
p6697
(lp6698
S'stairs'
p6699
aS'swains'
p6700
asg1187
(lp6701
g1185
asS'eludes'
p6702
(lp6703
S'eluded'
p6704
asS'auburn'
p6705
(lp6706
sg5678
(lp6707
g5674
asg6173
(lp6708
g1975
ag6693
ag6171
asS'runner'
p6709
(lp6710
S'gunner'
p6711
asS'lewdly'
p6712
(lp6713
sS'flaunt'
p6714
(lp6715
sg3234
(lp6716
g3231
ag3235
ag4045
asg4917
(lp6717
g4914
asS'avenue'
p6718
(lp6719
S'avenge'
p6720
asg6704
(lp6721
g6702
asS'bummed'
p6722
(lp6723
S'bummer'
p6724
ag2722
aS'hummed'
p6725
aS'summed'
p6726
asg4102
(lp6727
g1692
ag2687
ag2688
asg3909
(lp6728
S'shafts'
p6729
ag5511
ag1968
asg1670
(lp6730
g1152
ag1671
ag1672
ag1668
asS'onsets'
p6731
(lp6732
sg341
(lp6733
g1727
ag2736
ag333
asg3061
(lp6734
g3059
ag3060
ag1408
ag3062
ag3063
ag3064
ag3065
asg1129
(lp6735
g1128
ag1126
asg3586
(lp6736
g3584
asg6724
(lp6737
g6722
ag2759
ag2358
aS'summer'
p6738
asg6127
(lp6739
g4574
ag6124
ag1020
ag5945
asS'ornate'
p6740
(lp6741
sg5723
(lp6742
g5721
asS'nausea'
p6743
(lp6744
sS'bereft'
p6745
(lp6746
sS'femurs'
p6747
(lp6748
sS'crawls'
p6749
(lp6750
S'drawls'
p6751
asS'clefts'
p6752
(lp6753
sS'pleads'
p6754
(lp6755
sS'return'
p6756
(lp6757
sg2522
(lp6758
S'kindly'
p6759
ag2520
asg854
(lp6760
g270
ag425
ag426
ag845
asS'musket'
p6761
(lp6762
sS'gadget'
p6763
(lp6764
sg338
(lp6765
g335
ag336
ag337
ag339
ag333
asg1481
(lp6766
g2491
ag1362
ag1182
ag907
ag1477
ag5866
asS'detour'
p6767
(lp6768
g2463
asg3560
(lp6769
S'lisped'
p6770
ag2725
asS'obeyed'
p6771
(lp6772
sS'grubby'
p6773
(lp6774
sS'frigid'
p6775
(lp6776
sg1618
(lp6777
g1616
asS'sighed'
p6778
(lp6779
S'signed'
p6780
asS'hunted'
p6781
(lp6782
g2011
ag929
aS'punted'
p6783
asS'detach'
p6784
(lp6785
sg4486
(lp6786
g4482
ag4487
ag4488
asg2926
(lp6787
g2925
ag2923
ag5872
asg426
(lp6788
g422
ag854
asg715
(lp6789
g3492
aS'frayed'
p6790
ag216
ag709
ag835
aS'preyed'
p6791
asS'easily'
p6792
(lp6793
sS'exiles'
p6794
(lp6795
g6408
asg1989
(lp6796
g1987
asg14
(lp6797
g6
ag12
ag13
ag3481
ag3483
ag524
ag527
ag2377
ag1837
asg1656
(lp6798
g1652
ag1655
ag1052
ag1657
ag702
ag2862
ag3137
ag1275
asg5577
(lp6799
g3426
asg2350
(lp6800
g2348
ag2346
asS'truths'
p6801
(lp6802
sg4412
(lp6803
S'smiles'
p6804
ag207
ag4413
ag3486
ag5674
asS'habits'
p6805
(lp6806
sg349
(lp6807
g347
asg6408
(lp6808
g6794
ag2323
asS'knight'
p6809
(lp6810
sS'aligns'
p6811
(lp6812
S'aliens'
p6813
asS'errata'
p6814
(lp6815
sg1657
(lp6816
g2616
ag699
ag1652
ag1655
ag1052
ag1656
ag702
ag1141
ag2614
asg4180
(lp6817
g527
ag5553
asg2963
(lp6818
g1222
ag2964
ag2927
ag5886
asg585
(lp6819
g1367
ag581
ag1365
asg1486
(lp6820
g2539
ag1484
asS'rigors'
p6821
(lp6822
sg1724
(lp6823
g1723
ag2033
ag1725
ag1726
ag1721
ag169
asS'energy'
p6824
(lp6825
sg5749
(lp6826
g5736
ag5750
asg5634
(lp6827
g2654
asS'orally'
p6828
(lp6829
sS'nuclei'
p6830
(lp6831
sg4426
(lp6832
g5931
ag4424
asS'ripple'
p6833
(lp6834
S'nipple'
p6835
asS'atonal'
p6836
(lp6837
sS'callus'
p6838
(lp6839
sS'beyond'
p6840
(lp6841
sS'scribe'
p6842
(lp6843
sS'really'
p6844
(lp6845
sS'superb'
p6846
(lp6847
sg2579
(lp6848
g2577
ag6220
ag2580
ag2581
ag1867
asg2688
(lp6849
g6478
ag6506
ag1692
ag4102
ag377
ag2682
ag933
asg1036
(lp6850
g1034
ag2771
ag2385
asg170
(lp6851
g165
ag171
asS'linens'
p6852
(lp6853
S'likens'
p6854
ag3509
asg937
(lp6855
g938
ag935
asS'pigeon'
p6856
(lp6857
sg6565
(lp6858
g205
ag6563
asS'adhere'
p6859
(lp6860
sg1002
(lp6861
g1000
asS'equate'
p6862
(lp6863
sS'health'
p6864
(lp6865
S'wealth'
p6866
asS'carpet'
p6867
(lp6868
sg6720
(lp6869
g6718
asg2411
(lp6870
g2410
ag1433
ag1699
ag2412
ag407
ag2376
asS'urgent'
p6871
(lp6872
sS'quince'
p6873
(lp6874
sg1418
(lp6875
g5389
ag1416
asS'ironed'
p6876
(lp6877
sS'occurs'
p6878
(lp6879
sS'salute'
p6880
(lp6881
sg1835
(lp6882
g2372
ag1834
ag1082
ag1836
ag1832
asg3614
(lp6883
g3610
ag3611
ag3612
ag1713
ag3615
ag3616
asS'exodus'
p6884
(lp6885
sg5594
(lp6886
S'belied'
p6887
ag5567
ag5569
asg1158
(lp6888
g1134
ag1137
asg6887
(lp6889
g5594
ag5567
ag445
ag5568
asg1026
(lp6890
g1021
ag1817
ag1043
ag1820
ag1821
ag1027
ag1028
asS'barges'
p6891
(lp6892
S'badges'
p6893
asg6247
(lp6894
g5757
ag841
asS'bedlam'
p6895
(lp6896
sg1032
(lp6897
g1029
ag2421
ag1033
asg3151
(lp6898
g3334
ag572
ag3327
ag512
ag3152
ag917
ag3149
asS'foible'
p6899
(lp6900
sg5567
(lp6901
g6887
ag5594
aS'belles'
p6902
ag256
asg1134
(lp6903
g20
ag1158
ag1135
ag1132
asS'jocund'
p6904
(lp6905
sS'arable'
p6906
(lp6907
sg4631
(lp6908
g4629
ag5965
ag4632
asS'suntan'
p6909
(lp6910
S'sultan'
p6911
asS'murmur'
p6912
(lp6913
sS'clique'
p6914
(lp6915
sg3334
(lp6916
g3151
ag3767
ag1224
ag3877
ag4159
ag4274
ag3335
ag819
ag916
ag3337
ag1014
asg634
(lp6917
g628
ag1081
ag2006
ag1262
ag3377
ag1083
asg841
(lp6918
g840
ag6247
ag838
asg6400
(lp6919
g6397
asg670
(lp6920
g777
aS'bushel'
p6921
ag620
ag780
ag1509
ag1538
ag1539
asg2722
(lp6922
g6722
ag2759
ag2705
ag2720
ag2723
ag2724
ag2725
ag2726
asS'faucet'
p6923
(lp6924
sg4023
(lp6925
g5114
ag5115
ag5116
ag866
ag3178
ag11
ag4135
asS'thread'
p6926
(lp6927
S'threat'
p6928
asg2716
(lp6929
g2715
ag2713
asg4139
(lp6930
S'recant'
p6931
ag4137
asg6669
(lp6932
g6667
asS'script'
p6933
(lp6934
sS'stingy'
p6935
(lp6936
g695
asg516
(lp6937
g512
ag510
ag514
ag515
ag3149
ag6592
ag2061
ag3153
ag517
ag518
asg5796
(lp6938
g4204
ag5794
ag4205
asS'saloon'
p6939
(lp6940
S'salmon'
p6941
asg880
(lp6942
g875
ag877
ag878
ag879
ag5295
asS'whiten'
p6943
(lp6944
g2802
aS'whites'
p6945
asg6928
(lp6946
g6926
aS'throat'
p6947
asg2759
(lp6948
g6724
ag2722
ag2448
ag2760
asg5896
(lp6949
g1467
asg5522
(lp6950
g5520
ag3327
ag325
asg2349
(lp6951
g2346
asg5032
(lp6952
g5030
asg5409
(lp6953
g2380
ag2383
asS'assign'
p6954
(lp6955
sS'whorls'
p6956
(lp6957
S'whirls'
p6958
ag1068
asg6921
(lp6959
g670
asS'botany'
p6960
(lp6961
sg2422
(lp6962
g759
ag2420
ag2421
ag40
aS'rioted'
p6963
ag2562
ag761
ag2564
ag1160
asS'simply'
p6964
(lp6965
S'limply'
p6966
ag301
asS'lazier'
p6967
(lp6968
sS'relate'
p6969
(lp6970
S'rebate'
p6971
asS'dirges'
p6972
(lp6973
sg2450
(lp6974
g2446
ag2449
ag6627
asg4817
(lp6975
g995
ag2657
asg3240
(lp6976
g2046
asS'sailor'
p6977
(lp6978
S'tailor'
p6979
asg2564
(lp6980
g6210
ag3523
ag957
aS'rioter'
p6981
ag2560
ag2563
ag2422
ag3208
ag3212
asS'quarry'
p6982
(lp6983
sS'notify'
p6984
(lp6985
sS'tenure'
p6986
(lp6987
sS'undoes'
p6988
(lp6989
sS'firsts'
p6990
(lp6991
sg1589
(lp6992
g1586
ag1588
aS'wretch'
p6993
asg3015
(lp6994
g4721
ag5540
ag4691
ag3013
asS'visors'
p6995
(lp6996
sS'curtly'
p6997
(lp6998
S'curtsy'
p6999
asg6218
(lp7000
S'gasser'
p7001
ag330
ag2366
ag2418
asg2418
(lp7002
g668
ag3057
ag2686
ag4228
ag2366
ag6218
ag970
ag4098
asS'differ'
p7003
(lp7004
sg3943
(lp7005
g4350
ag4351
ag1613
ag4348
asg2174
(lp7006
g2171
ag612
ag2175
asS'twenty'
p7007
(lp7008
sS'coasts'
p7009
(lp7010
g5287
aS'roasts'
p7011
aS'toasts'
p7012
asS'litany'
p7013
(lp7014
sg2201
(lp7015
g1896
ag2200
ag2097
asS'flimsy'
p7016
(lp7017
sg3590
(lp7018
g3587
ag694
asS'mosaic'
p7019
(lp7020
sg5688
(lp7021
g858
ag859
ag4524
asg907
(lp7022
g2074
ag1481
ag904
ag902
ag1477
asS'seeker'
p7023
(lp7024
S'meeker'
p7025
ag2657
asS'essays'
p7026
(lp7027
sg2641
(lp7028
g2639
asS'banana'
p7029
(lp7030
sg3781
(lp7031
g2116
ag1689
ag1119
ag6770
aS'listen'
p7032
ag933
asg2011
(lp7033
g573
ag621
ag1769
ag6781
ag6783
asg1736
(lp7034
g5912
ag1734
ag1737
ag1738
ag1739
ag1740
ag1741
asS'warmly'
p7035
(lp7036
S'warily'
p7037
asS'option'
p7038
(lp7039
sg3446
(lp7040
g3442
aS'draped'
p7041
ag1567
ag4233
asg1567
(lp7042
g7041
ag3446
ag270
asS'needle'
p7043
(lp7044
sg3917
(lp7045
g3915
ag3665
asg2529
(lp7046
g2527
aS'expels'
p7047
asg5879
(lp7048
S'quaked'
p7049
aS'quakes'
p7050
ag892
asg7041
(lp7051
g3446
ag1567
asg1180
(lp7052
g460
ag1176
ag1772
ag1181
ag1182
ag1183
ag1184
asg3267
(lp7053
g3268
ag3265
asg573
(lp7054
g3326
ag570
ag2011
ag1767
ag1283
asg99
(lp7055
S'cackle'
p7056
ag94
asS'albums'
p7057
(lp7058
sS'stifle'
p7059
(lp7060
sg6699
(lp7061
g6697
asg2287
(lp7062
g1024
ag1823
ag1076
ag193
ag51
ag1273
ag1275
ag1790
asg2625
(lp7063
g3685
ag591
ag6298
ag2622
ag2626
asS'albeit'
p7064
(lp7065
sS'petals'
p7066
(lp7067
S'metals'
p7068
asg6759
(lp7069
S'kindle'
p7070
ag2522
asS'cyclic'
p7071
(lp7072
sS'uncles'
p7073
(lp7074
sS'double'
p7075
(lp7076
S'doubly'
p7077
asS'arrant'
p7078
(lp7079
g4713
asg6223
(lp7080
g6220
ag6222
ag2581
ag1846
asg1159
(lp7081
g1136
ag1137
asS'gnawed'
p7082
(lp7083
sg929
(lp7084
g1448
ag6781
ag927
ag934
asS'kidded'
p7085
(lp7086
sg5605
(lp7087
g5603
ag5606
asS'utopia'
p7088
(lp7089
sg2036
(lp7090
g6027
ag326
ag6025
ag2033
ag1962
ag2830
ag2828
asS'sedate'
p7091
(lp7092
S'senate'
p7093
asg5606
(lp7094
g5603
ag5605
asg7070
(lp7095
g6759
asS'inflow'
p7096
(lp7097
sS'weapon'
p7098
(lp7099
sS'talker'
p7100
(lp7101
S'talked'
p7102
ag3756
ag3330
aS'walker'
p7103
asg3524
(lp7104
g3521
ag1482
ag1870
ag1760
asS'swerve'
p7105
(lp7106
sg2934
(lp7107
g2933
ag2931
ag1504
ag3509
ag4416
ag5899
ag3549
ag2935
asS'justly'
p7108
(lp7109
sg354
(lp7110
g350
ag3785
ag3787
asg439
(lp7111
g437
ag438
ag435
ag440
ag441
ag442
asg5202
(lp7112
S'defeat'
p7113
ag3986
asg5899
(lp7114
g1863
ag2934
asS'mayhap'
p7115
(lp7116
sS'caress'
p7117
(lp7118
sS'engulf'
p7119
(lp7120
sg4369
(lp7121
g3047
ag4368
asg5983
(lp7122
g5981
asg4899
(lp7123
g4877
ag4897
asg2905
(lp7124
g2904
ag5459
aS'shrewd'
p7125
ag225
asS'eureka'
p7126
(lp7127
sS'organs'
p7128
(lp7129
sg1042
(lp7130
g1819
ag191
ag3430
ag1043
ag1040
asg1378
(lp7131
g794
ag1376
ag3506
asS'blanch'
p7132
(lp7133
S'branch'
p7134
asS'update'
p7135
(lp7136
sg440
(lp7137
g437
ag438
ag439
ag435
ag441
ag442
asS'adrift'
p7138
(lp7139
sg4028
(lp7140
g2865
ag5114
ag4027
ag2866
ag5592
ag3174
ag1355
asg4783
(lp7141
g4782
ag4780
ag6086
asS'trance'
p7142
(lp7143
S'prance'
p7144
asS'pinkie'
p7145
(lp7146
sg3722
(lp7147
g3720
ag5165
asS'honors'
p7148
(lp7149
sS'jousts'
p7150
(lp7151
sg5592
(lp7152
g2839
ag5571
ag2841
ag4028
ag5552
asS'jostle'
p7153
(lp7154
sS'silent'
p7155
(lp7156
sg2314
(lp7157
g281
ag4423
ag2053
ag2313
asS'poplar'
p7158
(lp7159
sg3177
(lp7160
g2866
ag281
ag4029
ag3175
asg249
(lp7161
g245
asg4730
(lp7162
g4728
asS'bobbin'
p7163
(lp7164
sS'serene'
p7165
(lp7166
sg4524
(lp7167
g5688
ag3116
ag4522
asS'frauds'
p7168
(lp7169
sS'reckon'
p7170
(lp7171
S'beckon'
p7172
asS'zeroth'
p7173
(lp7174
sg3255
(lp7175
g3254
ag1182
asS'fresco'
p7176
(lp7177
sS'depths'
p7178
(lp7179
S'deaths'
p7180
asg2442
(lp7181
g2440
asS'bipeds'
p7182
(lp7183
sg1888
(lp7184
g1886
asg7103
(lp7185
g7100
ag6075
asS'easing'
p7186
(lp7187
g187
ag700
ag46
asg49
(lp7188
g188
ag43
ag48
ag1820
ag2120
ag1602
asS'wisdom'
p7189
(lp7190
sg1993
(lp7191
g1947
asS'oyster'
p7192
(lp7193
sS'stands'
p7194
(lp7195
sS'salary'
p7196
(lp7197
sg5926
(lp7198
g2014
aS'madman'
p7199
asg1273
(lp7200
g701
ag48
ag3496
ag1823
ag1076
ag193
ag2287
ag51
aS'ravine'
p7201
ag1269
ag1601
ag1046
asS'quorum'
p7202
(lp7203
sS'sturdy'
p7204
(lp7205
sS'mobile'
p7206
(lp7207
sg3496
(lp7208
g701
ag48
ag1822
ag1075
ag234
ag2617
ag703
ag2120
ag1273
ag1601
ag1046
asg4044
(lp7209
g4871
ag3509
ag4045
ag3549
ag4041
asg1461
(lp7210
g1460
ag1458
asg3044
(lp7211
g3169
ag3042
asS'thinly'
p7212
(lp7213
sg4610
(lp7214
g4045
ag4046
asg5523
(lp7215
g5520
ag3877
aS'barrel'
p7216
aS'barren'
p7217
ag5646
ag5648
asS'succor'
p7218
(lp7219
sg6377
(lp7220
g5238
ag3071
ag4217
ag2751
asg4413
(lp7221
g4412
ag207
asg7217
(lp7222
g5523
ag7216
asg7216
(lp7223
g5523
ag7217
asg1944
(lp7224
g1942
aS'signer'
p7225
ag1925
ag2061
ag2097
ag344
asg248
(lp7226
g247
ag245
asS'enemas'
p7227
(lp7228
sS'gnomon'
p7229
(lp7230
sS'commas'
p7231
(lp7232
sg6738
(lp7233
g6724
ag2358
aS'simmer'
p7234
ag6726
asS'rivets'
p7235
(lp7236
g2935
asS'adsorb'
p7237
(lp7238
S'absorb'
p7239
asg5101
(lp7240
g3200
ag3201
asS'aghast'
p7241
(lp7242
sS'python'
p7243
(lp7244
sg1578
(lp7245
g1687
ag1688
ag1689
ag1685
ag292
ag1694
ag1577
ag1574
ag1535
ag1247
asg345
(lp7246
g932
ag333
ag343
ag344
asS'crayon'
p7247
(lp7248
sg1184
(lp7249
g460
ag1176
ag1180
ag1181
ag1182
ag1183
ag5866
asg2773
(lp7250
g3382
ag2769
asg3007
(lp7251
g3004
ag232
ag1344
ag3687
ag3008
ag3009
ag235
ag2718
asg2736
(lp7252
g2733
ag341
asS'newest'
p7253
(lp7254
S'fewest'
p7255
asS'melody'
p7256
(lp7257
sg531
(lp7258
g3256
ag3259
ag2374
ag407
ag532
ag525
asS'trolls'
p7259
(lp7260
sg642
(lp7261
g643
ag640
asg1712
(lp7262
g4511
ag3966
ag1706
ag1713
ag2737
ag1913
asS'impact'
p7263
(lp7264
g5229
asg1441
(lp7265
g3001
ag1442
ag85
asg5601
(lp7266
g5599
asg217
(lp7267
g3493
ag4295
ag1326
ag210
ag214
ag215
ag216
ag1328
asg1163
(lp7268
g5733
aS'merged'
p7269
ag2728
ag1161
asg2728
(lp7270
g7269
ag1163
ag1164
asg2803
(lp7271
g6945
ag2799
asS'ratify'
p7272
(lp7273
sg6072
(lp7274
g6070
ag6071
ag4329
ag6073
asg287
(lp7275
g286
ag2867
ag327
ag284
asg6079
(lp7276
g5991
asg357
(lp7277
g4971
ag2827
ag358
ag359
ag360
ag361
ag362
ag355
ag365
ag366
asS'enzyme'
p7278
(lp7279
sg2140
(lp7280
g2137
asS'kidnap'
p7281
(lp7282
sS'betray'
p7283
(lp7284
sS'condom'
p7285
(lp7286
sS'equity'
p7287
(lp7288
sg327
(lp7289
g325
ag326
ag2908
ag2870
ag287
ag328
ag291
asS'viably'
p7290
(lp7291
g5148
asS'circle'
p7292
(lp7293
sg7269
(lp7294
g1163
ag2728
asS'lazily'
p7295
(lp7296
sg5328
(lp7297
g5326
asg1298
(lp7298
g1883
ag1296
ag1299
asg2010
(lp7299
g3713
ag1687
ag4860
ag1679
ag1281
ag1769
ag1693
asg2312
(lp7300
g3510
ag5029
ag2589
ag2053
asg5914
(lp7301
g271
asg1679
(lp7302
g2010
ag1281
ag1677
ag3694
asg1225
(lp7303
g1223
ag1220
ag1224
ag1932
ag1894
ag1895
ag1892
ag1896
asS'biopsy'
p7304
(lp7305
sg1592
(lp7306
g1590
ag1115
ag1439
ag171
asS'fatals'
p7307
(lp7308
sS'famous'
p7309
(lp7310
sS'ferret'
p7311
(lp7312
sg1281
(lp7313
g3715
ag3326
ag325
ag3519
ag2010
ag1679
ag460
ag1282
ag1283
ag1178
ag1869
ag1731
ag331
ag1870
asS'breast'
p7314
(lp7315
sg2374
(lp7316
g3618
ag11
ag2372
ag1699
ag2373
ag531
ag407
ag598
ag409
ag3849
ag1836
ag524
asS'docile'
p7317
(lp7318
sg4797
(lp7319
g4770
ag569
asS'beards'
p7320
(lp7321
S'boards'
p7322
asg1932
(lp7323
g572
ag1225
ag3326
ag1933
ag1750
ag1934
asg2188
(lp7324
g2965
ag2185
aS'nudged'
p7325
asS'molten'
p7326
(lp7327
sg1286
(lp7328
g943
asS'elapse'
p7329
(lp7330
sS'gloved'
p7331
(lp7332
g4626
ag853
ag6222
asS'adapts'
p7333
(lp7334
S'adopts'
p7335
asS'sleeve'
p7336
(lp7337
sS'tumult'
p7338
(lp7339
sg5277
(lp7340
S'humors'
p7341
aS'rumors'
p7342
ag5275
asS'icicle'
p7343
(lp7344
sg3896
(lp7345
g3895
ag2329
ag4906
ag3893
asS'ermine'
p7346
(lp7347
sg6129
(lp7348
g4719
asS'coughs'
p7349
(lp7350
S'boughs'
p7351
asg6902
(lp7352
g5567
asg2772
(lp7353
g2771
ag476
ag2730
ag3381
ag5785
ag3382
ag2769
asg853
(lp7354
g4618
ag5701
ag7331
ag4626
ag845
asS'common'
p7355
(lp7356
sg4588
(lp7357
g4586
asS'gospel'
p7358
(lp7359
sg3330
(lp7360
g572
ag3328
ag3329
ag7100
ag1934
ag5020
asg5849
(lp7361
g5847
asg1841
(lp7362
g1839
asg1098
(lp7363
g1097
ag311
ag1714
asS'leeway'
p7364
(lp7365
sS'insane'
p7366
(lp7367
sg2358
(lp7368
g6724
ag1979
ag6725
ag6738
asS'forego'
p7369
(lp7370
sg4201
(lp7371
g2826
ag3643
asS'ribbon'
p7372
(lp7373
sg824
(lp7374
g817
ag818
ag815
ag823
ag3337
ag3092
aS'rocket'
p7375
ag825
asS'devils'
p7376
(lp7377
sg6726
(lp7378
g6722
ag6725
ag6738
asS'nibble'
p7379
(lp7380
g6126
ag2555
asg2781
(lp7381
g2196
asg5192
(lp7382
g6336
ag5190
asg4536
(lp7383
g4534
asg3065
(lp7384
g3059
ag3060
ag3061
ag1408
ag3062
ag3063
ag3064
asg3643
(lp7385
g2852
ag3641
ag4201
asg548
(lp7386
g545
asS'tidied'
p7387
(lp7388
sg865
(lp7389
g2816
ag611
ag8
ag588
ag6446
ag593
ag866
asS'boxtop'
p7390
(lp7391
sg5114
(lp7392
g4028
ag5115
ag5116
ag4023
ag11
ag4135
asS'akimbo'
p7393
(lp7394
sS'learns'
p7395
(lp7396
sS'expert'
p7397
(lp7398
S'expect'
p7399
ag718
asS'guinea'
p7400
(lp7401
sS'urchin'
p7402
(lp7403
sg4866
(lp7404
g2704
ag4849
asS'dipole'
p7405
(lp7406
sS'aviary'
p7407
(lp7408
S'apiary'
p7409
asg5611
(lp7410
g1274
asg1028
(lp7411
g1021
ag1026
ag1027
ag194
ag1790
aS'taxing'
p7412
ag5700
asg1114
(lp7413
g1111
aS'halved'
p7414
ag1115
ag1116
asS'grocer'
p7415
(lp7416
S'grower'
p7417
asS'myriad'
p7418
(lp7419
sS'abrade'
p7420
(lp7421
sS'acidic'
p7422
(lp7423
sS'cutout'
p7424
(lp7425
sS'donate'
p7426
(lp7427
sg3200
(lp7428
g3119
ag2302
ag5101
asS'thrive'
p7429
(lp7430
S'thrice'
p7431
asg7077
(lp7432
g7075
asg1156
(lp7433
g437
asg1727
(lp7434
S'mildew'
p7435
ag1745
ag313
ag1721
ag341
asg2175
(lp7436
g2171
ag612
ag2174
ag2657
ag1698
ag5124
asg4893
(lp7437
g4879
asg7435
(lp7438
g1727
asg3523
(lp7439
g6210
ag5100
ag3201
ag2421
ag3521
ag957
ag2564
asS'undone'
p7440
(lp7441
sS'sunned'
p7442
(lp7443
S'gunned'
p7444
ag2097
asS'brooch'
p7445
(lp7446
S'broach'
p7447
asS'pagoda'
p7448
(lp7449
sg3471
(lp7450
g3467
asg2421
(lp7451
g759
ag2420
ag3510
ag3512
ag3523
ag1032
ag40
ag2422
asg2657
(lp7452
g4817
ag2175
ag7023
ag1641
asg2373
(lp7453
g2372
ag1699
ag3259
ag2412
ag2374
ag598
aS'soaped'
p7454
asg1464
(lp7455
g1282
ag1179
ag1757
ag1758
ag1869
ag1181
ag1462
ag1759
ag1760
asS'asthma'
p7456
(lp7457
sg13
(lp7458
g713
ag6
ag12
ag689
ag1080
ag14
asg3169
(lp7459
g3167
ag3044
asS'bronze'
p7460
(lp7461
sg5828
(lp7462
g5667
asS'adagio'
p7463
(lp7464
sg1255
(lp7465
g1253
asg2500
(lp7466
g2497
asg1325
(lp7467
g2838
ag1354
ag2840
ag1323
asg2840
(lp7468
g2836
ag2834
ag2839
ag1354
ag1325
ag3472
ag1327
asg3918
(lp7469
S'adored'
p7470
ag3915
asg6911
(lp7471
g6909
asS'fiance'
p7472
(lp7473
sg4046
(lp7474
g4043
ag3547
ag4041
ag4610
ag4047
asS'annual'
p7475
(lp7476
sS'octets'
p7477
(lp7478
sS'bandit'
p7479
(lp7480
sg7470
(lp7481
g3918
asg1354
(lp7482
g2837
ag2865
ag1325
ag2840
ag3493
ag1326
asS'amoeba'
p7483
(lp7484
sg4941
(lp7485
g4938
ag4939
ag4936
ag4940
asg3540
(lp7486
g3538
ag3541
ag1412
asg4873
(lp7487
g4871
ag4043
asg1451
(lp7488
g1448
ag1449
ag1450
ag1446
ag1213
ag342
ag2268
asS'vistas'
p7489
(lp7490
sg2798
(lp7491
g947
asg6071
(lp7492
g6070
ag6072
ag4329
ag6073
asS'danced'
p7493
(lp7494
g1107
ag4754
ag1108
asg2816
(lp7495
g3684
ag1527
ag611
ag865
ag8
ag588
ag612
ag2817
ag589
asg301
(lp7496
g434
ag432
aS'sample'
p7497
ag299
ag6964
asS'voyage'
p7498
(lp7499
sg651
(lp7500
g1454
ag6601
ag650
ag647
ag5990
ag5988
asS'gadfly'
p7501
(lp7502
sg5395
(lp7503
g5392
asg2990
(lp7504
g2675
ag2676
asS'steely'
p7505
(lp7506
g3434
asg1527
(lp7507
g2816
ag3573
ag2484
ag462
ag4319
aS'herder'
p7508
ag1374
ag1525
asg4754
(lp7509
g7493
ag1107
ag4752
ag1109
asg1107
(lp7510
g1106
ag7493
ag4754
ag1749
ag1104
asS'agents'
p7511
(lp7512
sS'frosty'
p7513
(lp7514
g74
asg614
(lp7515
g609
ag613
ag6298
ag2626
ag6043
ag6041
ag615
asS'church'
p7516
(lp7517
sg4217
(lp7518
g4214
ag6377
ag2751
asg2862
(lp7519
g1656
ag734
ag2860
ag3137
ag1275
asg3434
(lp7520
g3897
ag7505
ag2496
ag964
asS'plumed'
p7521
(lp7522
g4099
asg1739
(lp7523
g1736
ag1734
ag1737
ag1738
ag1740
ag1741
asg74
(lp7524
g72
ag7513
asg1639
(lp7525
g1638
ag1110
ag1374
ag1640
ag1530
ag1641
ag1642
asg1959
(lp7526
g1955
ag3374
asS'create'
p7527
(lp7528
g1548
asS'appall'
p7529
(lp7530
sS'verbal'
p7531
(lp7532
sg7431
(lp7533
g7429
asg5476
(lp7534
g5475
ag5473
asg3547
(lp7535
g4043
ag3544
ag3545
ag3546
ag2041
ag4041
ag4046
ag4047
asS'secret'
p7536
(lp7537
sg3921
(lp7538
g4401
ag3919
asS'mutiny'
p7539
(lp7540
sS'armory'
p7541
(lp7542
sg4531
(lp7543
g4529
ag5771
ag1170
asg1603
(lp7544
g3411
ag3412
ag3409
ag52
ag4168
ag4815
asg2984
(lp7545
g2982
ag2983
ag4151
ag2980
ag2985
asS'goober'
p7546
(lp7547
sg5791
(lp7548
g6140
ag5789
ag5792
asS'flinty'
p7549
(lp7550
sg2430
(lp7551
g4950
ag3735
ag2428
ag837
ag2432
asS'logjam'
p7552
(lp7553
sg4099
(lp7554
S'plumbs'
p7555
ag7521
ag4096
asS'engage'
p7556
(lp7557
S'enrage'
p7558
asg6365
(lp7559
g6363
asS'realms'
p7560
(lp7561
sS'demand'
p7562
(lp7563
sg3735
(lp7564
g2430
ag4950
ag5319
ag2431
ag1443
ag3736
asg6639
(lp7565
g6638
ag6636
asg2259
(lp7566
g6414
ag1128
asg1848
(lp7567
g601
ag1846
ag1847
ag3856
ag1876
ag1880
asg6149
(lp7568
g4485
asg939
(lp7569
g935
ag2814
ag1039
aS'slants'
p7570
asS'pierce'
p7571
(lp7572
S'fierce'
p7573
asS'stolen'
p7574
(lp7575
g3486
asg364
(lp7576
g2823
ag1057
ag2827
ag355
ag363
ag2648
asg2841
(lp7577
g2834
ag5571
ag2866
ag2843
ag5592
aS'frames'
p7578
asg3391
(lp7579
g987
ag3390
ag2406
asS'frozen'
p7580
(lp7581
sg2187
(lp7582
g6893
ag2965
aS'budget'
p7583
ag2185
asg7583
(lp7584
g2965
ag2187
asg253
(lp7585
g4498
ag250
ag483
asS'admire'
p7586
(lp7587
sS'tattoo'
p7588
(lp7589
sS'bikini'
p7590
(lp7591
g189
asg957
(lp7592
g6210
ag3523
ag1881
ag956
ag888
ag40
ag2564
asS'hereto'
p7593
(lp7594
sg189
(lp7595
g184
ag7590
ag3411
ag1346
ag4057
asg2965
(lp7596
g3660
ag2187
ag7583
ag2927
ag2967
ag2188
ag7325
asg3486
(lp7597
g4412
ag7574
ag1879
ag529
ag2453
ag5674
asS'prolog'
p7598
(lp7599
sg7032
(lp7600
g3781
asg3767
(lp7601
g3334
ag1708
ag1224
ag3877
ag4159
ag6212
ag3027
ag7102
ag6075
asS'casino'
p7602
(lp7603
g700
asS'dictum'
p7604
(lp7605
sg3137
(lp7606
g1656
ag2862
ag3134
ag3136
ag1275
asg5677
(lp7607
g5676
ag5674
asS'folksy'
p7608
(lp7609
sS'guilty'
p7610
(lp7611
sS'motors'
p7612
(lp7613
sg6399
(lp7614
g6397
asS'rulers'
p7615
(lp7616
sS'tonsil'
p7617
(lp7618
sS'itself'
p7619
(lp7620
sg650
(lp7621
g1452
ag651
ag647
ag5888
ag5991
asg4419
(lp7622
g4417
asg2904
(lp7623
g2905
ag225
asS'facade'
p7624
(lp7625
sg5420
(lp7626
g4888
asg604
(lp7627
g602
ag1726
asg3601
(lp7628
g3235
ag1982
ag3236
ag3598
ag944
asS'fairer'
p7629
(lp7630
sg2331
(lp7631
g2173
ag1698
ag1700
ag4094
asS'saline'
p7632
(lp7633
g5883
asg6993
(lp7634
g1589
asg6464
(lp7635
g4751
ag6465
asS'oriole'
p7636
(lp7637
sS'belong'
p7638
(lp7639
sg1816
(lp7640
g1793
ag1794
ag5992
asg590
(lp7641
g589
ag591
ag592
ag593
ag317
ag552
ag2551
asS'orders'
p7642
(lp7643
sS'benign'
p7644
(lp7645
sS'kimono'
p7646
(lp7647
sg3388
(lp7648
g366
ag1577
ag4662
ag6159
asg5475
(lp7649
g5476
ag5473
asg2776
(lp7650
g2774
asg6631
(lp7651
g6629
asg1793
(lp7652
g1816
ag1791
ag5994
asg2329
(lp7653
g2327
ag2328
ag3896
ag2182
asg4050
(lp7654
g878
asS'strips'
p7655
(lp7656
g223
ag743
asS'belfry'
p7657
(lp7658
sS'whisks'
p7659
(lp7660
sg4038
(lp7661
g2930
ag4036
ag2679
asg3326
(lp7662
g3715
ag572
ag1932
ag325
ag1281
ag573
ag4272
asg7113
(lp7663
g5202
asg2589
(lp7664
g2588
ag2562
ag2312
ag2565
asS'cement'
p7665
(lp7666
sg3244
(lp7667
g3243
ag3241
asg2400
(lp7668
g2399
ag2708
ag1504
ag2397
asS'impede'
p7669
(lp7670
sg743
(lp7671
g741
ag742
ag739
ag7655
ag744
asS'robust'
p7672
(lp7673
sg2565
(lp7674
g2560
ag2589
asS'unveil'
p7675
(lp7676
sg6070
(lp7677
g3993
ag6931
ag6071
ag6072
ag4329
ag6073
asg5768
(lp7678
g5766
asg1894
(lp7679
g1225
ag5336
ag1933
ag1895
ag1892
ag1896
asg2435
(lp7680
S'expand'
p7681
ag2433
asg3362
(lp7682
g3361
ag3359
asg1068
(lp7683
g1064
ag1062
ag5737
ag6956
asg1983
(lp7684
g5403
ag2251
ag1980
asg3494
(lp7685
g3466
ag6508
ag2790
ag4295
asg5336
(lp7686
g5334
ag1894
ag1933
asS'flirts'
p7687
(lp7688
sg818
(lp7689
g817
ag2624
aS'docket'
p7690
ag4187
ag815
ag823
ag824
ag825
asg6508
(lp7691
g3494
ag2790
ag6370
asg266
(lp7692
g263
ag2735
ag6602
asg5331
(lp7693
g5326
asg2790
(lp7694
g3467
ag2788
ag2786
ag3494
ag6508
ag2791
asg5661
(lp7695
g17
asS'solids'
p7696
(lp7697
sS'shawls'
p7698
(lp7699
sg415
(lp7700
g413
asS'knower'
p7701
(lp7702
sg1933
(lp7703
g1932
ag1106
ag3328
ag1894
ag5336
ag1750
ag1934
asS'clears'
p7704
(lp7705
S'cleans'
p7706
asg6602
(lp7707
g265
ag649
ag266
asg6931
(lp7708
g4139
ag6070
aS'secant'
p7709
asg7690
(lp7710
g818
ag919
ag7375
aS'socket'
p7711
asS'propos'
p7712
(lp7713
sS'pollen'
p7714
(lp7715
g1339
asg5765
(lp7716
g2971
asg4072
(lp7717
g4070
ag5948
asg5358
(lp7718
g1434
ag7454
ag3849
ag825
ag3483
asS'cabins'
p7719
(lp7720
sg458
(lp7721
g455
ag456
ag457
ag418
ag459
ag2480
ag2484
ag868
ag2485
asS'emerge'
p7722
(lp7723
sg4997
(lp7724
g4995
ag1100
aS'corset'
p7725
aS'hornet'
p7726
asg1339
(lp7727
g7714
ag1335
ag3616
ag2440
ag2443
asg5179
(lp7728
g5177
asS'morsel'
p7729
(lp7730
sg3966
(lp7731
g4511
ag374
ag1712
ag2737
ag1913
asS'trowel'
p7732
(lp7733
sS'openly'
p7734
(lp7735
sg1213
(lp7736
g930
ag1210
ag342
ag1451
ag2268
asg4738
(lp7737
g175
asg4136
(lp7738
g6154
ag4133
ag4332
ag5160
ag2512
ag243
asS'prince'
p7739
(lp7740
g7144
asg5208
(lp7741
g5206
asg4972
(lp7742
g5812
ag5810
ag5813
ag5814
ag4968
ag4973
asg6783
(lp7743
g2011
ag6781
ag288
asg1937
(lp7744
g1935
asS'goblet'
p7745
(lp7746
sg4973
(lp7747
g4968
ag4972
asS'recurs'
p7748
(lp7749
sS'deputy'
p7750
(lp7751
sS'widows'
p7752
(lp7753
sS'fitful'
p7754
(lp7755
sS'makers'
p7756
(lp7757
S'bakers'
p7758
aS'takers'
p7759
asS'source'
p7760
(lp7761
sS'snappy'
p7762
(lp7763
sg978
(lp7764
g976
ag979
ag980
asS'bridal'
p7765
(lp7766
sg1239
(lp7767
g1235
ag4759
ag1240
ag1241
ag394
ag1242
ag1243
asS'merely'
p7768
(lp7769
sg337
(lp7770
g335
ag336
ag1922
ag430
ag2232
ag338
ag339
ag333
asg6594
(lp7771
g6592
asS'squawk'
p7772
(lp7773
sg1576
(lp7774
g288
ag1227
ag3807
ag4272
ag242
ag1574
asS'habeas'
p7775
(lp7776
sg3057
(lp7777
g668
ag3138
ag782
ag4282
ag2686
ag2418
asS'awakes'
p7778
(lp7779
S'awaken'
p7780
asg3038
(lp7781
g3036
asg3192
(lp7782
g3225
ag3190
asS'couple'
p7783
(lp7784
sS'jerked'
p7785
(lp7786
sS'sneeze'
p7787
(lp7788
sg1347
(lp7789
g1343
ag1344
ag1341
ag4169
ag238
ag5700
ag1348
asg3377
(lp7790
g411
ag634
ag1262
ag1083
ag1067
asS'sextet'
p7791
(lp7792
sg1059
(lp7793
g1055
ag1101
asg6591
(lp7794
g6589
asS'redeem'
p7795
(lp7796
sg5682
(lp7797
g637
asg4007
(lp7798
S'deadly'
p7799
ag4008
ag4005
ag4010
asg3329
(lp7800
g572
ag3328
ag1751
ag3807
ag4272
ag3330
asS'dactyl'
p7801
(lp7802
sg7780
(lp7803
g7778
asS'muskox'
p7804
(lp7805
sg3225
(lp7806
g3192
ag3193
asg3449
(lp7807
g3447
ag3618
ag9
asg3441
(lp7808
g4330
ag2200
ag4332
asS'rotate'
p7809
(lp7810
sS'maples'
p7811
(lp7812
sg5568
(lp7813
g6887
ag5569
ag256
asg3027
(lp7814
g3767
ag6212
ag4274
ag2967
ag3610
ag3025
asS'facets'
p7815
(lp7816
sg5780
(lp7817
g1972
ag5778
asg1212
(lp7818
g930
ag1210
asg1045
(lp7819
g1040
ag1044
ag195
ag1046
ag1047
ag2718
asg742
(lp7820
g4894
ag741
ag739
ag743
ag744
asg6135
(lp7821
g6133
ag1064
asS'safest'
p7822
(lp7823
S'sanest'
p7824
asg6835
(lp7825
g6833
asS'entice'
p7826
(lp7827
S'entire'
p7828
asg1371
(lp7829
g1369
ag1480
asg193
(lp7830
g184
ag190
ag191
ag192
ag1823
ag1076
ag2287
ag51
ag1273
ag194
ag195
asS'bamboo'
p7831
(lp7832
sS'walrus'
p7833
(lp7834
sg3279
(lp7835
g3277
ag3136
ag3278
asg1764
(lp7836
g149
aS'gurgle'
p7837
asS'talkie'
p7838
(lp7839
sg4251
(lp7840
g4249
asS'parade'
p7841
(lp7842
sg3470
(lp7843
g268
ag3491
ag3467
ag3472
asg7093
(lp7844
g7091
asg353
(lp7845
g352
ag5884
ag350
ag2121
ag3785
asS'ulcers'
p7846
(lp7847
sS'skimpy'
p7848
(lp7849
S'skimps'
p7850
asg1491
(lp7851
g4479
ag1489
asg3491
(lp7852
g3685
ag212
ag3470
ag3466
ag3492
ag3493
asS'attics'
p7853
(lp7854
S'antics'
p7855
asS'cicada'
p7856
(lp7857
sg4304
(lp7858
g4299
asS'mirror'
p7859
(lp7860
sS'vacate'
p7861
(lp7862
sS'candle'
p7863
(lp7864
S'handle'
p7865
asg5884
(lp7866
g5881
ag353
asg5546
(lp7867
g5544
asS'turkey'
p7868
(lp7869
sg644
(lp7870
g640
asS'sauces'
p7871
(lp7872
S'saucer'
p7873
asg7873
(lp7874
g7871
asS'sanity'
p7875
(lp7876
S'vanity'
p7877
asS'rarely'
p7878
(lp7879
g3344
asg1630
(lp7880
g1628
asS'garage'
p7881
(lp7882
sg4938
(lp7883
g4939
ag4936
ag4940
ag4941
asg600
(lp7884
g2376
ag1062
ag596
ag599
ag2453
asg735
(lp7885
g4073
ag732
ag2619
asS'though'
p7886
(lp7887
S'trough'
p7888
asg3450
(lp7889
g3447
asg1911
(lp7890
g3574
ag1912
ag1909
asg3371
(lp7891
g3368
asg1697
(lp7892
g3970
ag10
aS'stamen'
p7893
asS'behave'
p7894
(lp7895
sg7234
(lp7896
S'dimmer'
p7897
ag6738
asg6657
(lp7898
g5330
asS'becalm'
p7899
(lp7900
sg45
(lp7901
g3432
ag734
ag46
ag47
ag43
ag50
ag51
ag52
asS'aflame'
p7902
(lp7903
sS'invade'
p7904
(lp7905
sg877
(lp7906
g875
ag878
ag879
ag880
asg400
(lp7907
g1110
ag2830
ag401
ag398
asg6770
(lp7908
g3560
ag3781
asg6194
(lp7909
g6192
asg46
(lp7910
g45
ag7186
ag47
ag43
ag50
ag51
ag52
asg7412
(lp7911
g194
ag1028
ag1790
ag1047
asg3383
(lp7912
g1905
ag3379
ag3382
asg4107
(lp7913
g5804
ag4104
asg3320
(lp7914
g3367
ag362
ag1957
ag3321
asg3914
(lp7915
g3912
asg5020
(lp7916
g2796
ag5018
ag2061
ag3330
ag517
ag6620
ag343
asg343
(lp7917
g2796
ag5018
ag2061
ag5020
ag518
ag333
ag2268
ag344
ag345
asS'become'
p7918
(lp7919
S'became'
p7920
asg569
(lp7921
g4797
ag589
ag1374
ag553
asg3367
(lp7922
g3320
ag2820
ag3346
asS'abroad'
p7923
(lp7924
sg233
(lp7925
g231
ag232
ag229
ag238
asS'troops'
p7926
(lp7927
S'droops'
p7928
asg2830
(lp7929
g2036
ag1962
ag400
ag1110
aS'larger'
p7930
ag2828
asS'temple'
p7931
(lp7932
sg6513
(lp7933
g5235
asS'pigpen'
p7934
(lp7935
sg5124
(lp7936
g6043
ag2175
ag1698
asg1740
(lp7937
g1736
ag1734
ag1737
ag1738
ag1739
ag1020
ag5945
ag6062
ag1741
asS'pumice'
p7938
(lp7939
sg1344
(lp7940
g1343
ag3430
ag232
ag3007
ag3687
ag1341
ag1347
ag1348
asS'turret'
p7941
(lp7942
sS'ambush'
p7943
(lp7944
sS'catnip'
p7945
(lp7946
sg2283
(lp7947
g2281
asS'dialog'
p7948
(lp7949
sg518
(lp7950
g512
ag510
ag514
ag515
ag516
ag517
ag1017
ag343
asS'hatred'
p7951
(lp7952
sS'gambit'
p7953
(lp7954
sg4216
(lp7955
g2532
ag4214
asg2735
(lp7956
g3662
ag266
ag2733
asS'cutoff'
p7957
(lp7958
sg3665
(lp7959
g3917
ag1065
asS'plenty'
p7960
(lp7961
sg385
(lp7962
g382
ag2667
asg769
(lp7963
g767
asg2255
(lp7964
g2253
asg6813
(lp7965
g6811
asS'within'
p7966
(lp7967
sg7341
(lp7968
g7342
ag5277
asg4423
(lp7969
g4420
ag4422
ag2832
ag2873
ag5696
ag5648
ag2314
asg4029
(lp7970
g2866
ag3177
ag4016
ag7578
ag6790
asS'renown'
p7971
(lp7972
sS'ridges'
p7973
(lp7974
sg4607
(lp7975
g799
asg783
(lp7976
g777
ag778
ag779
ag775
ag781
ag782
ag1690
ag2686
ag784
asg7578
(lp7977
g2841
ag4029
ag4016
asg4016
(lp7978
g2843
ag4029
ag7578
asg2667
(lp7979
g384
ag385
asg1972
(lp7980
g1066
ag1971
ag1067
ag2880
ag5619
ag5780
asg6999
(lp7981
g6997
asg4950
(lp7982
g2430
ag3735
ag3645
ag4951
asS'stench'
p7983
(lp7984
g4261
asS'unwise'
p7985
(lp7986
sg5058
(lp7987
g5056
asg1684
(lp7988
g1682
asg2395
(lp7989
g2393
asg5155
(lp7990
g3895
asg1660
(lp7991
S'throbs'
p7992
ag1658
asg6189
(lp7993
g6186
asS'pallid'
p7994
(lp7995
sS'hookup'
p7996
(lp7997
g2606
asS'amidst'
p7998
(lp7999
sS'custom'
p8000
(lp8001
sS'occupy'
p8002
(lp8003
sS'abbeys'
p8004
(lp8005
sg3849
(lp8006
g3178
ag3618
ag11
ag2374
ag409
ag5358
ag7454
ag3932
ag1836
ag524
asS'subdue'
p8007
(lp8008
sS'reward'
p8009
(lp8010
S'regard'
p8011
aS'retard'
p8012
asg6394
(lp8013
g7706
ag6392
asS'sesame'
p8014
(lp8015
sg5096
(lp8016
g2077
ag1811
asS'oblong'
p8017
(lp8018
sg4713
(lp8019
g7078
ag4711
asS'plunge'
p8020
(lp8021
sg2922
(lp8022
g2920
asg4958
(lp8023
g4956
ag6115
asS'ordeal'
p8024
(lp8025
sg2612
(lp8026
g2608
ag2611
ag6043
aS'pepper'
p8027
ag2613
asS'retina'
p8028
(lp8029
sg2206
(lp8030
g2204
ag2208
asg4881
(lp8031
g1238
asg2385
(lp8032
g1036
ag477
ag632
ag1814
ag2386
asg1768
(lp8033
g2928
ag1283
asS'thefts'
p8034
(lp8035
sS'calico'
p8036
(lp8037
sg6043
(lp8038
g2626
ag614
ag2612
ag6041
ag5124
asg712
(lp8039
g711
ag834
ag2814
ag5255
ag713
ag709
asg5366
(lp8040
g5364
asS'klaxon'
p8041
(lp8042
sS'divans'
p8043
(lp8044
sS'yeasts'
p8045
(lp8046
g5286
aS'feasts'
p8047
asg3064
(lp8048
g3059
ag3060
ag3061
ag1408
ag3062
ag3063
ag3065
asg3755
(lp8049
g3748
ag1709
ag5804
ag4350
ag3756
asg2194
(lp8050
g2192
asS'horned'
p8051
(lp8052
g7726
asg5255
(lp8053
g712
ag834
ag2814
asS'nestle'
p8054
(lp8055
g4940
asg3542
(lp8056
g3538
aS'whines'
p8057
asg2439
(lp8058
g3554
ag2437
asS'apiece'
p8059
(lp8060
sg2389
(lp8061
g4502
ag2100
asg2832
(lp8062
g3076
ag2828
ag4423
ag2833
asg4284
(lp8063
g224
asS'groove'
p8064
(lp8065
sg1709
(lp8066
g1708
ag4970
ag3755
ag4106
ag4511
ag3611
ag1706
ag1714
asg7726
(lp8067
g4997
ag8051
asg1303
(lp8068
g1301
asg5148
(lp8069
g5146
ag7290
asg584
(lp8070
g583
ag581
ag586
asS'aerial'
p8071
(lp8072
S'serial'
p8073
asS'adults'
p8074
(lp8075
sS'oddity'
p8076
(lp8077
sg1076
(lp8078
g698
ag1023
ag1075
ag1823
ag193
ag2287
ag51
ag1273
ag1044
asg379
(lp8079
g373
ag374
ag375
ag312
ag378
ag1714
ag2737
ag1089
asg4228
(lp8080
g290
ag330
ag2418
ag4098
ag1812
asg330
(lp8081
g329
ag290
ag4228
ag291
ag6218
ag1809
asS'unsafe'
p8082
(lp8083
sg2432
(lp8084
g2430
ag2428
ag837
ag4951
ag3736
asg7068
(lp8085
S'medals'
p8086
ag7066
asS'images'
p8087
(lp8088
sS'accost'
p8089
(lp8090
sg6475
(lp8091
g6473
asg6061
(lp8092
g6057
asg5987
(lp8093
g5407
asS'chafer'
p8094
(lp8095
g1649
asS'graham'
p8096
(lp8097
sg4057
(lp8098
g189
ag1346
ag3008
ag4126
asS'kidney'
p8099
(lp8100
sS'cotton'
p8101
(lp8102
sg4940
(lp8103
g4938
ag4939
ag4936
ag8054
ag4941
asg275
(lp8104
g2964
ag1455
ag273
ag5888
asS'intact'
p8105
(lp8106
sS'sunken'
p8107
(lp8108
sg2031
(lp8109
g2029
ag2030
ag392
ag779
aS'dished'
p8110
ag1508
ag2032
ag1690
ag1535
asS'dimmed'
p8111
(lp8112
g7897
asg406
(lp8113
g3447
ag3618
ag1065
ag407
ag404
ag411
ag412
asg4047
(lp8114
g4043
ag3547
ag4041
ag4046
ag2247
asS'parlor'
p8115
(lp8116
sg608
(lp8117
g6561
ag607
ag2102
ag605
asS'actors'
p8118
(lp8119
sS'taboos'
p8120
(lp8121
sS'income'
p8122
(lp8123
sg7897
(lp8124
g8111
ag7234
asS'aprons'
p8125
(lp8126
sS'pandas'
p8127
(lp8128
sg779
(lp8129
g777
ag778
ag2031
ag392
ag5293
ag775
ag781
ag782
ag783
ag784
asg392
(lp8130
g391
ag2031
ag779
ag393
ag389
ag397
asS'tedium'
p8131
(lp8132
S'medium'
p8133
asg6804
(lp8134
g363
ag4412
asg410
(lp8135
g1065
ag1062
ag404
ag2517
ag1971
ag1067
ag529
asS'cellar'
p8136
(lp8137
g6176
asg1501
(lp8138
g967
ag1499
asg2139
(lp8139
g2763
ag2137
asS'gabler'
p8140
(lp8141
g1710
ag5813
asS'oblige'
p8142
(lp8143
sg2077
(lp8144
g2075
ag5096
ag1811
ag2202
asg7255
(lp8145
g7253
asg3509
(lp8146
g3508
ag6852
ag4416
ag2934
ag4044
ag2745
ag3506
asg6305
(lp8147
g6303
asS'fished'
p8148
(lp8149
g8110
aS'fisher'
p8150
ag5294
ag2116
ag3351
asS'sixgun'
p8151
(lp8152
sg5792
(lp8153
g5791
ag5789
ag5353
asg1363
(lp8154
g1360
ag1361
ag1358
ag242
aS'rusted'
p8155
ag1364
ag244
asS'cymbal'
p8156
(lp8157
sg5524
(lp8158
g5520
asg363
(lp8159
g355
ag6804
ag364
asg1420
(lp8160
S'dubbed'
p8161
ag1416
ag1419
ag5413
asg5294
(lp8162
g5293
ag8148
ag8150
ag1536
asg8150
(lp8163
g8148
ag5294
ag5295
asS'offing'
p8164
(lp8165
sS'desert'
p8166
(lp8167
sg6492
(lp8168
g6489
asg736
(lp8169
g734
ag732
ag3294
asS'mantel'
p8170
(lp8171
sg4272
(lp8172
g3326
ag4270
ag1751
ag3329
ag1576
ag394
asg2474
(lp8173
g2475
ag2476
ag2472
asS'evilly'
p8174
(lp8175
sg507
(lp8176
g505
asg1037
(lp8177
g1034
ag2533
asg6075
(lp8178
g3767
ag7102
ag7103
ag1714
asg1548
(lp8179
g7527
ag1546
asg3144
(lp8180
g758
aS'choked'
p8181
ag817
ag1337
ag36
ag2052
ag3512
ag37
asg1047
(lp8182
g7412
ag1040
ag1044
ag195
ag1045
ag1046
asg1275
(lp8183
g1656
ag2862
ag3137
ag2287
ag1274
ag1269
ag1276
asS'prefab'
p8184
(lp8185
sg6017
(lp8186
g5994
ag5995
ag6050
asg6050
(lp8187
g5995
ag6017
asS'menace'
p8188
(lp8189
sg48
(lp8190
g701
ag43
ag49
ag3496
ag1273
ag1601
ag1046
asS'evenly'
p8191
(lp8192
sg1879
(lp8193
S'atones'
p8194
ag3486
ag1876
ag529
ag2453
asg589
(lp8195
g3684
ag2816
ag569
ag1374
ag590
ag591
ag592
ag593
ag317
ag552
ag2548
asg1455
(lp8196
g2964
ag1452
ag275
ag5888
asg930
(lp8197
g1212
ag931
ag927
ag1213
asg2165
(lp8198
g4986
ag4988
ag3341
ag2164
ag2161
ag861
ag4989
asS'squats'
p8199
(lp8200
S'squads'
p8201
asS'effigy'
p8202
(lp8203
sS'issued'
p8204
(lp8205
S'issuer'
p8206
aS'issues'
p8207
asg1694
(lp8208
g1687
ag1688
ag1689
ag1685
ag292
ag4345
ag1242
ag1246
ag1364
ag1578
asg4024
(lp8209
g3178
asg1364
(lp8210
g1360
ag1361
ag1358
ag1363
ag1694
ag243
ag3983
ag244
asS'cobalt'
p8211
(lp8212
sS'psyche'
p8213
(lp8214
S'psycho'
p8215
asS'dispel'
p8216
(lp8217
sg5023
(lp8218
g5021
asS'fecund'
p8219
(lp8220
sg1142
(lp8221
g1141
ag3432
ag1139
asS'dainty'
p8222
(lp8223
sS'gossip'
p8224
(lp8225
sg8215
(lp8226
g8213
asS'golfer'
p8227
(lp8228
sg8207
(lp8229
g8204
ag8206
asg8206
(lp8230
g8204
ag8207
asg325
(lp8231
g3715
ag3326
ag5522
ag3327
ag1281
ag326
ag327
ag328
ag291
asg4113
(lp8232
g4111
asS'peanut'
p8233
(lp8234
sS'fenced'
p8235
(lp8236
S'fencer'
p8237
aS'fences'
p8238
asS'mosque'
p8239
(lp8240
sg5645
(lp8241
g2748
ag2935
asS'rudder'
p8242
(lp8243
g1529
asg3412
(lp8244
g3411
ag3409
ag1603
asS'adjoin'
p8245
(lp8246
sg2982
(lp8247
g4148
ag2983
ag2984
ag2980
ag2985
asg1906
(lp8248
g4055
ag1902
ag1905
ag3418
asg5363
(lp8249
g6258
ag4805
aS'breech'
p8250
ag7447
aS'preach'
p8251
asS'tremor'
p8252
(lp8253
sg844
(lp8254
g6370
ag2960
ag842
ag974
asg8238
(lp8255
g8235
ag8237
asg8237
(lp8256
g8235
ag8238
asg5866
(lp8257
g2491
ag1362
ag1481
ag1184
asS'random'
p8258
(lp8259
S'ransom'
p8260
asS'seized'
p8261
(lp8262
S'seizes'
p8263
asg6317
(lp8264
g4542
ag2831
asS'bibles'
p8265
(lp8266
sg297
(lp8267
g294
asg5295
(lp8268
g8150
ag397
ag3351
ag1536
ag880
asg8263
(lp8269
g8261
asg5838
(lp8270
g3958
asg7888
(lp8271
g7886
asS'accuse'
p8272
(lp8273
sg4768
(lp8274
g3687
ag3009
asS'artery'
p8275
(lp8276
sS'syntax'
p8277
(lp8278
sS'harlot'
p8279
(lp8280
sS'bellum'
p8281
(lp8282
sS'pledge'
p8283
(lp8284
g1231
asg7828
(lp8285
g7826
asg619
(lp8286
g2701
aS'busier'
p8287
ag616
ag621
asg2950
(lp8288
g2167
asS'stodgy'
p8289
(lp8290
sS'harbor'
p8291
(lp8292
sg1638
(lp8293
g2003
ag1639
ag1640
ag1530
ag1641
ag1642
asg4926
(lp8294
g4924
asS'megohm'
p8295
(lp8296
sS'supine'
p8297
(lp8298
sg8287
(lp8299
g619
ag1767
asS'quahog'
p8300
(lp8301
sg2268
(lp8302
g1615
ag2096
ag1017
ag1213
ag342
ag1451
ag343
asg6971
(lp8303
g1703
ag6969
asS'choppy'
p8304
(lp8305
sS'optics'
p8306
(lp8307
sS'havens'
p8308
(lp8309
S'ravens'
p8310
asS'sewage'
p8311
(lp8312
sg6729
(lp8313
g3909
asg515
(lp8314
g512
ag510
ag514
ag917
ag1013
ag918
ag5018
ag5510
ag516
ag517
ag518
asS'darers'
p8315
(lp8316
sS'dilute'
p8317
(lp8318
S'dilate'
p8319
asg326
(lp8320
g325
ag2036
ag6027
ag286
aS'cartel'
p8321
ag6025
ag1235
ag327
ag328
ag291
asg918
(lp8322
g913
ag1013
ag515
ag919
ag1015
asg4135
(lp8323
g5114
ag5115
ag5116
ag4023
ag11
ag1700
ag4133
asS'relink'
p8324
(lp8325
sg2402
(lp8326
g2401
ag2397
asg7050
(lp8327
g7049
ag5879
asS'malice'
p8328
(lp8329
sS'mishap'
p8330
(lp8331
sg2935
(lp8332
g2933
ag2931
ag2934
ag5645
ag2748
ag7235
asS'redone'
p8333
(lp8334
sg286
(lp8335
g8321
ag326
ag6024
ag287
ag284
asS'snugly'
p8336
(lp8337
sg1013
(lp8338
g513
ag820
ag1012
ag916
ag2622
ag515
ag918
ag1010
ag1017
asS'nephew'
p8339
(lp8340
sS'ardent'
p8341
(lp8342
sg8321
(lp8343
g286
ag326
asg1442
(lp8344
g1441
ag3977
ag85
asS'append'
p8345
(lp8346
sS'thighs'
p8347
(lp8348
sS'hourly'
p8349
(lp8350
S'sourly'
p8351
asS'evokes'
p8352
(lp8353
S'evoked'
p8354
asS'junior'
p8355
(lp8356
sS'opaque'
p8357
(lp8358
sg4579
(lp8359
g3006
ag4126
asS'anthem'
p8360
(lp8361
S'anther'
p8362
asS'ribald'
p8363
(lp8364
sg5814
(lp8365
g5812
ag5810
ag5813
ag4972
asg2164
(lp8366
g2161
ag2165
ag861
aS'saddle'
p8367
asg2726
(lp8368
g2722
ag2720
ag2723
ag2724
ag2725
asS'access'
p8369
(lp8370
sg8354
(lp8371
g8352
asS'unreal'
p8372
(lp8373
sg7709
(lp8374
g6931
asg8362
(lp8375
g8360
aS'antler'
p8376
asS'attire'
p8377
(lp8378
sS'infuse'
p8379
(lp8380
sg2170
(lp8381
g2168
asS'famish'
p8382
(lp8383
sg1875
(lp8384
g1873
ag3974
ag3972
asS'raisin'
p8385
(lp8386
sg1496
(lp8387
g1494
asS'gilded'
p8388
(lp8389
sg7454
(lp8390
g2373
ag5358
ag3849
ag3934
asg5286
(lp8391
g5284
ag5287
ag8047
ag8045
asg4261
(lp8392
g4258
ag7983
asS'blimps'
p8393
(lp8394
sg186
(lp8395
g184
ag187
ag188
ag2616
ag699
ag3432
ag3430
ag2617
asg2555
(lp8396
g7379
ag2553
asS'scythe'
p8397
(lp8398
sS'acquit'
p8399
(lp8400
sg5132
(lp8401
g4484
ag4487
ag5133
asS'miasma'
p8402
(lp8403
sg579
(lp8404
S'ethers'
p8405
ag577
asg1080
(lp8406
g2768
ag1079
ag13
ag689
ag690
ag1077
ag527
asS'layout'
p8407
(lp8408
sS'canals'
p8409
(lp8410
sg7102
(lp8411
g3767
ag1014
ag7100
ag4345
ag6075
asg3077
(lp8412
g4420
ag3967
ag3074
ag281
asS'remark'
p8413
(lp8414
sg700
(lp8415
g187
ag698
ag190
ag699
ag7602
ag701
ag696
ag7186
asg2083
(lp8416
g2080
asS'uneasy'
p8417
(lp8418
sS'bayous'
p8419
(lp8420
sS'aromas'
p8421
(lp8422
sS'opiate'
p8423
(lp8424
sg5085
(lp8425
g5086
ag5083
asS'coffin'
p8426
(lp8427
sS'quaint'
p8428
(lp8429
sg7049
(lp8430
g5879
ag7050
asS'armpit'
p8431
(lp8432
sS'mussel'
p8433
(lp8434
sg5963
(lp8435
g5961
asg7417
(lp8436
g2580
ag7415
asg40
(lp8437
g759
ag2420
ag2421
ag37
ag38
ag34
ag39
ag957
ag2422
asS'chaste'
p8438
(lp8439
sg2229
(lp8440
g359
ag2818
ag2820
asS'hectic'
p8441
(lp8442
sS'truism'
p8443
(lp8444
sg1749
(lp8445
g5870
ag1107
ag1467
ag1747
ag1751
asg999
(lp8446
g997
asS'layman'
p8447
(lp8448
S'laymen'
p8449
asg4834
(lp8450
g2703
ag4833
asS'manage'
p8451
(lp8452
sS'ensign'
p8453
(lp8454
sg855
(lp8455
g852
ag845
ag3217
ag3218
ag3558
ag2381
asg7399
(lp8456
g7397
asg7928
(lp8457
S'droopy'
p8458
ag7926
asg5574
(lp8459
g67
asg7172
(lp8460
g7170
asg6140
(lp8461
g6139
ag5791
ag6141
ag3719
asg6325
(lp8462
g323
ag2551
asg3545
(lp8463
g3544
ag2040
ag3546
ag2041
ag3547
ag3758
asg5287
(lp8464
g5286
ag5284
aS'boosts'
p8465
ag7009
ag7011
ag7012
asS'causal'
p8466
(lp8467
sS'sermon'
p8468
(lp8469
sg8458
(lp8470
g7928
asg6979
(lp8471
g6977
asg1360
(lp8472
g1687
ag445
ag621
ag1361
ag1358
ag1363
ag1364
ag244
asg4220
(lp8473
S'scream'
p8474
ag4218
asg1328
(lp8475
g1323
ag828
ag2959
ag2960
ag2961
ag217
asg3361
(lp8476
g3362
ag3359
asS'beefed'
p8477
(lp8478
S'beefer'
p8479
asS'idiots'
p8480
(lp8481
sS'whacks'
p8482
(lp8483
g477
asS'eleven'
p8484
(lp8485
sS'camera'
p8486
(lp8487
sg4721
(lp8488
g5238
ag3015
ag4691
asg3852
(lp8489
g3850
ag4519
asS'eagles'
p8490
(lp8491
sg2006
(lp8492
g627
ag1834
ag634
ag2007
ag2004
asg8479
(lp8493
g8477
ag996
asg4244
(lp8494
g4242
asg5238
(lp8495
g5236
ag4721
ag5540
ag6377
asg3319
(lp8496
g4764
ag3716
ag2199
ag1957
asS'popped'
p8497
(lp8498
sg4624
(lp8499
g4622
asg7056
(lp8500
g99
asS'infamy'
p8501
(lp8502
sg4169
(lp8503
g2995
ag1345
ag4165
ag4168
ag238
ag5700
ag1347
asg310
(lp8504
g1097
ag373
ag1743
ag3691
ag308
asS'factor'
p8505
(lp8506
sg1743
(lp8507
g3748
ag373
ag310
ag1613
ag1744
ag313
ag1746
asS'basalt'
p8508
(lp8509
sS'wildly'
p8510
(lp8511
S'mildly'
p8512
asS'bodily'
p8513
(lp8514
sS'thatch'
p8515
(lp8516
sg4951
(lp8517
g4950
ag3645
ag2432
ag3736
asg3736
(lp8518
g3735
ag2431
ag1443
ag2432
ag4951
asS'rabbit'
p8519
(lp8520
sg6044
(lp8521
g6041
asg3120
(lp8522
g3117
ag2853
ag1340
asS'gladly'
p8523
(lp8524
sg373
(lp8525
g1708
ag6212
ag1743
ag310
ag3610
ag374
ag375
ag312
ag378
ag379
asg5110
(lp8526
g5108
aS'pieced'
p8527
asg3826
(lp8528
g3823
asg7711
(lp8529
g7690
ag919
ag7375
ag825
asg7497
(lp8530
g301
asg342
(lp8531
g931
ag1213
ag333
ag1451
ag2268
asS'arched'
p8532
(lp8533
S'arches'
p8534
asg288
(lp8535
g1896
ag284
ag292
ag6783
ag1576
ag1574
asg5137
(lp8536
g1767
aS'dusted'
p8537
ag5138
ag1733
asS'tunnel'
p8538
(lp8539
S'funnel'
p8540
asg8367
(lp8541
g2164
asg745
(lp8542
g739
ag6005
ag972
ag6007
asg8537
(lp8543
g621
ag5137
ag8155
asg8534
(lp8544
g8532
asg2449
(lp8545
g2446
ag5206
ag2450
asg2097
(lp8546
g2201
ag6780
ag1450
ag2096
ag1944
ag7442
asg215
(lp8547
g210
ag214
ag2959
ag271
ag216
ag217
asS'praise'
p8548
(lp8549
sg607
(lp8550
g5045
ag608
ag605
ag5043
asg1092
(lp8551
g1093
ag134
asS'befits'
p8552
(lp8553
sg5356
(lp8554
g885
ag5354
asS'lummox'
p8555
(lp8556
sg4468
(lp8557
g2113
ag5038
asg5445
(lp8558
g455
ag5443
ag2485
ag5472
asS'patrol'
p8559
(lp8560
S'patron'
p8561
asg8561
(lp8562
S'matron'
p8563
ag8559
asg2121
(lp8564
g1602
ag353
asS'pelvic'
p8565
(lp8566
S'pelvis'
p8567
asS'forays'
p8568
(lp8569
sg3512
(lp8570
g758
ag3144
ag3510
ag5100
ag2421
ag37
asg3403
(lp8571
g3402
ag3400
asg200
(lp8572
g198
asS'syrupy'
p8573
(lp8574
sg6958
(lp8575
g6956
asg8527
(lp8576
g5110
asg8567
(lp8577
g8565
asg8073
(lp8578
g8071
asS'martyr'
p8579
(lp8580
sg676
(lp8581
g674
ag677
asg5895
(lp8582
g1467
asS'caliph'
p8583
(lp8584
sg3432
(lp8585
g186
ag699
ag45
ag1142
ag3430
ag2617
asg695
(lp8586
g694
ag6935
ag3316
ag692
asg472
(lp8587
g470
asS'midsts'
p8588
(lp8589
sg731
(lp8590
g727
ag728
ag729
ag725
ag4291
ag5773
asg3293
(lp8591
g3277
ag2616
ag3291
asS'poetry'
p8592
(lp8593
sS'thrift'
p8594
(lp8595
sg4574
(lp8596
g4572
ag5912
ag6124
ag6127
asS'suburb'
p8597
(lp8598
sg2023
(lp8599
g2021
asg4839
(lp8600
g4837
asS'animal'
p8601
(lp8602
sg3656
(lp8603
g2266
asg8133
(lp8604
g8131
asS'memoir'
p8605
(lp8606
sg5138
(lp8607
g1767
ag5137
ag1733
asS'watery'
p8608
(lp8609
sS'entree'
p8610
(lp8611
sg2771
(lp8612
g1036
ag2772
ag2769
asg4764
(lp8613
g3319
ag3738
ag2910
asS'attend'
p8614
(lp8615
sg1508
(lp8616
g2029
ag2030
ag2031
ag393
ag781
ag1505
ag2032
ag1690
ag1535
asg3328
(lp8617
g572
ag1106
ag1933
ag3329
ag3330
asg6751
(lp8618
g6749
asS'chiefs'
p8619
(lp8620
sg778
(lp8621
g777
aS'caches'
p8622
ag2030
ag391
aS'cashew'
p8623
ag1237
ag779
ag775
ag781
ag782
ag783
ag784
asg7992
(lp8624
g1660
asg4794
(lp8625
g2827
ag1338
asg7144
(lp8626
g7739
ag7142
asS'ethnic'
p8627
(lp8628
sg834
(lp8629
g833
ag6423
ag712
ag2814
ag5255
ag714
asg781
(lp8630
g777
ag778
ag779
ag775
ag1508
ag393
ag1509
ag782
ag783
ag784
asg393
(lp8631
g391
ag392
ag1508
ag781
ag389
ag397
asS'alibis'
p8632
(lp8633
sS'physic'
p8634
(lp8635
sS'varied'
p8636
(lp8637
S'varies'
p8638
asS'tomato'
p8639
(lp8640
sg919
(lp8641
g7690
ag913
ag918
ag7375
ag7711
asg3583
(lp8642
g3245
asg2791
(lp8643
g3472
ag2788
ag2786
ag2790
ag4295
asg3897
(lp8644
g3893
ag3898
ag3434
asg216
(lp8645
g3492
ag6790
ag210
ag214
ag215
ag2961
ag217
ag715
asg223
(lp8646
g3882
ag221
ag224
ag7655
asS'remedy'
p8647
(lp8648
sg5506
(lp8649
g5504
asS'corral'
p8650
(lp8651
sg7824
(lp8652
g7822
asS'bakery'
p8653
(lp8654
g7758
asg4295
(lp8655
g3493
ag3494
ag2791
ag217
asS'villas'
p8656
(lp8657
sS'agenda'
p8658
(lp8659
sg296
(lp8660
g294
asg7758
(lp8661
g8653
ag7756
ag7759
asS'craggy'
p8662
(lp8663
sS'ignite'
p8664
(lp8665
sg4372
(lp8666
g3616
ag5012
ag1811
asS'lingua'
p8667
(lp8668
sS'padded'
p8669
(lp8670
sg462
(lp8671
g418
ag1527
ag3573
ag2484
ag8
ag4319
ag463
asg3792
(lp8672
g3790
asS'minnow'
p8673
(lp8674
sS'disarm'
p8675
(lp8676
sg5733
(lp8677
g1375
ag1163
asg6007
(lp8678
g744
ag6005
ag972
ag745
asS'vizier'
p8679
(lp8680
sS'gunman'
p8681
(lp8682
S'gunmen'
p8683
asg5648
(lp8684
g5523
ag5646
ag4423
ag2873
ag5696
asS'tyrant'
p8685
(lp8686
sg2946
(lp8687
g2944
asS'vilify'
p8688
(lp8689
sg6893
(lp8690
S'badger'
p8691
ag6891
ag2187
asg8691
(lp8692
g6893
ag2925
asS'byline'
p8693
(lp8694
sg5093
(lp8695
g5091
asS'chosen'
p8696
(lp8697
sS'cudgel'
p8698
(lp8699
sg3174
(lp8700
g3172
ag4027
ag2866
ag4028
ag6220
asg8638
(lp8701
g8636
asS'seemly'
p8702
(lp8703
sg6945
(lp8704
g8057
ag6943
ag2802
ag2803
asS'weasel'
p8705
(lp8706
sS'choose'
p8707
(lp8708
sS'turban'
p8709
(lp8710
sg2802
(lp8711
g2801
ag6943
ag6945
ag2799
asS'orange'
p8712
(lp8713
S'grange'
p8714
asg3593
(lp8715
g120
asg1692
(lp8716
g2499
ag1690
ag1691
ag2686
ag1685
ag4102
ag2688
ag2366
asg445
(lp8717
g6887
ag1360
ag1369
ag443
asg4253
(lp8718
g12
ag1079
ag689
asg1723
(lp8719
g429
ag2035
ag1724
ag1725
ag1726
ag1721
ag169
asS'citrus'
p8720
(lp8721
sg7001
(lp8722
g2499
ag6218
asg3211
(lp8723
g3210
ag3254
ag332
ag1033
ag1482
ag3208
asg860
(lp8724
g848
ag859
ag2163
ag3341
ag861
asS'snails'
p8725
(lp8726
sg2236
(lp8727
g1431
asS'placid'
p8728
(lp8729
g711
asS'snoopy'
p8730
(lp8731
g2475
asg190
(lp8732
g184
ag698
ag699
ag700
ag701
ag696
ag191
ag192
ag193
ag194
ag195
asg2475
(lp8733
g2474
ag8730
ag2476
ag2472
asS'refuel'
p8734
(lp8735
sg8683
(lp8736
g8681
asg2499
(lp8737
g2497
ag7001
ag1692
ag2366
asS'stunts'
p8738
(lp8739
sg6790
(lp8740
g3492
ag4029
ag216
ag715
asg5068
(lp8741
g5066
asS'scenic'
p8742
(lp8743
sg218
(lp8744
g212
ag210
ag829
ag272
ag830
asg2479
(lp8745
S'partly'
p8746
ag2477
asg4204
(lp8747
g4202
ag5796
asg7047
(lp8748
g2529
asg4988
(lp8749
g4986
ag3341
ag2165
ag4989
asS'cocoon'
p8750
(lp8751
sg1025
(lp8752
g1023
ag1021
ag1024
ag47
ag1821
asg1276
(lp8753
g3291
ag702
ag1274
ag1275
ag1269
ag3294
asg5141
(lp8754
g5139
asg972
(lp8755
g741
ag6005
ag745
ag6007
asg4977
(lp8756
S'subnet'
p8757
ag4975
asg4001
(lp8758
g4000
ag3998
asS'ankles'
p8759
(lp8760
sS'thwart'
p8761
(lp8762
sS'inputs'
p8763
(lp8764
sS'imbibe'
p8765
(lp8766
sg4493
(lp8767
g5719
ag4491
asg195
(lp8768
g184
ag190
ag191
ag192
ag193
ag194
ag1040
ag1044
ag1045
ag1046
ag1047
asS'whimsy'
p8769
(lp8770
sg4877
(lp8771
g4874
ag4899
ag4897
asg6527
(lp8772
g6525
asg2207
(lp8773
g2294
ag2204
asg1115
(lp8774
g1111
ag1114
ag167
ag1592
ag171
ag1116
asg167
(lp8775
g3032
ag1115
ag168
ag165
asS'lentil'
p8776
(lp8777
sS'sexual'
p8778
(lp8779
sg340
(lp8780
g2003
ag1110
ag1949
ag403
ag2828
ag333
ag346
asS'fondle'
p8781
(lp8782
S'fondly'
p8783
asg3031
(lp8784
g1612
ag5218
ag3032
asS'reload'
p8785
(lp8786
sg265
(lp8787
g263
ag649
ag6602
asg6362
(lp8788
g6360
asS'fathom'
p8789
(lp8790
sg2817
(lp8791
g2816
ag612
ag7508
asg5883
(lp8792
g7632
ag6480
ag5881
asS'remiss'
p8793
(lp8794
sg2571
(lp8795
g2569
asS'motifs'
p8796
(lp8797
sg5229
(lp8798
g7263
ag5227
asg7508
(lp8799
g1962
ag1527
ag2817
asg2007
(lp8800
g2006
ag1262
ag2004
ag1263
asg8783
(lp8801
g8781
asg4626
(lp8802
g4622
ag7331
ag853
ag2580
asg3574
(lp8803
g2483
ag3573
ag9
ag1911
asg2692
(lp8804
g2690
aS'thrust'
p8805
asg2785
(lp8806
g2782
asg7125
(lp8807
g2905
asS'reacts'
p8808
(lp8809
sS'greedy'
p8810
(lp8811
sS'darkly'
p8812
(lp8813
sS'salami'
p8814
(lp8815
sg38
(lp8816
g756
ag760
ag37
ag34
ag39
ag40
ag761
asg5251
(lp8817
g5249
asg3841
(lp8818
g3839
aS'sorely'
p8819
aS'surety'
p8820
asS'hazard'
p8821
(lp8822
sg5103
(lp8823
g2069
asg8805
(lp8824
g2692
asg3012
(lp8825
g3010
asS'anyhow'
p8826
(lp8827
sg5472
(lp8828
g459
ag4319
ag5445
ag2485
ag555
asS'tenant'
p8829
(lp8830
sS'larvae'
p8831
(lp8832
sg5218
(lp8833
g3031
ag7414
ag446
ag1086
asg555
(lp8834
g551
ag318
ag5472
asS'allies'
p8835
(lp8836
S'allied'
p8837
asg615
(lp8838
g609
ag613
ag614
ag993
asS'bowman'
p8839
(lp8840
sg8161
(lp8841
g1420
asg5855
(lp8842
g5853
asg1512
(lp8843
g1507
ag1505
ag1511
ag396
ag1539
ag8155
asg1108
(lp8844
g7493
ag1104
ag1109
ag5438
asS'irking'
p8845
(lp8846
g3
asS'chilly'
p8847
(lp8848
S'chills'
p8849
asS'length'
p8850
(lp8851
sg8837
(lp8852
g8835
asS'navies'
p8853
(lp8854
sg228
(lp8855
g226
ag1935
asg3411
(lp8856
g189
ag3412
ag3409
ag1603
asg1109
(lp8857
g4754
ag1108
ag1104
asg8849
(lp8858
g8847
asg2208
(lp8859
g2206
ag2204
ag3305
asS'museum'
p8860
(lp8861
sS'embryo'
p8862
(lp8863
sS'lynxes'
p8864
(lp8865
sg1014
(lp8866
g3334
ag3335
ag819
ag916
ag3337
ag7102
ag4345
ag1010
ag1016
asS'finest'
p8867
(lp8868
sS'suffix'
p8869
(lp8870
sg212
(lp8871
g268
ag3491
ag3466
ag3492
ag3493
ag210
ag218
asg5657
(lp8872
g5655
asg8047
(lp8873
g5286
ag8045
asg5942
(lp8874
g3619
ag3884
ag5940
ag1846
asg4384
(lp8875
g4382
asg4062
(lp8876
g4801
ag1038
ag4119
ag4902
asg3427
(lp8877
g3426
ag3424
asS'pretty'
p8878
(lp8879
sg4965
(lp8880
g4963
ag3898
asS'afield'
p8881
(lp8882
sg3758
(lp8883
g3545
ag3548
asS'filial'
p8884
(lp8885
sg4487
(lp8886
g4482
ag4486
ag5132
ag4488
asg268
(lp8887
g212
ag3470
ag3467
ag3472
ag213
ag272
asg905
(lp8888
g902
ag906
asg8714
(lp8889
g8712
asg1891
(lp8890
g1889
asg5710
(lp8891
g1439
asS'filthy'
p8892
(lp8893
sg3681
(lp8894
g3679
asg5762
(lp8895
g6566
ag911
asS'system'
p8896
(lp8897
sS'offset'
p8898
(lp8899
sS'chintz'
p8900
(lp8901
sS'attach'
p8902
(lp8903
S'attack'
p8904
asg8904
(lp8905
g8902
asg5800
(lp8906
g5797
ag5799
asg5799
(lp8907
g5797
ag5800
asg1153
(lp8908
g1150
ag2696
ag2523
ag1673
asg1649
(lp8909
g8094
ag1646
ag1650
ag5074
asg1650
(lp8910
g316
ag1646
ag1649
ag4130
ag5075
asg2401
(lp8911
g2402
ag2397
asS'liquor'
p8912
(lp8913
sg421
(lp8914
g419
asg7335
(lp8915
g7333
asS'malady'
p8916
(lp8917
sg9
(lp8918
g611
ag6298
ag3449
ag3574
ag10
ag11
ag6
asg2893
(lp8919
g2891
asg4352
(lp8920
g3616
ag4348
asg7011
(lp8921
g5287
ag7009
ag7012
asS'punish'
p8922
(lp8923
sg760
(lp8924
g756
ag38
ag761
asS'nobody'
p8925
(lp8926
sg3089
(lp8927
g3084
asg996
(lp8928
g8479
ag993
asg8449
(lp8929
g8447
asg629
(lp8930
g2629
ag625
ag633
ag630
ag1444
asg7930
(lp8931
g2830
asg4332
(lp8932
g4330
ag3441
ag1642
ag4136
ag243
asS'recess'
p8933
(lp8934
sS'goblin'
p8935
(lp8936
sg1083
(lp8937
g1077
ag634
ag1262
ag3377
ag2004
ag6084
asS'wigwam'
p8938
(lp8939
sg1986
(lp8940
g1984
asS'libido'
p8941
(lp8942
sg2029
(lp8943
g777
ag4159
ag1687
ag4860
ag2030
ag2031
ag1508
ag2032
ag1690
ag1535
asg2616
(lp8944
g186
ag3277
ag3291
ag3293
ag1657
ag2614
asg6682
(lp8945
g3519
aS'mother'
p8946
asS'riches'
p8947
(lp8948
S'richer'
p8949
asg8949
(lp8950
g8947
asg2723
(lp8951
g2722
ag2720
ag6725
ag2724
ag2725
ag2726
asS'facile'
p8952
(lp8953
sg777
(lp8954
g2029
ag668
ag1245
ag3825
ag670
ag778
ag779
ag775
ag781
ag782
ag783
ag784
asS'snazzy'
p8955
(lp8956
sS'dynamo'
p8957
(lp8958
sS'yawner'
p8959
(lp8960
sS'sultry'
p8961
(lp8962
sS'bodice'
p8963
(lp8964
sg5045
(lp8965
g607
ag5043
asg5537
(lp8966
g5535
asg1318
(lp8967
g272
ag1317
ag2403
asS'beggar'
p8968
(lp8969
sS'gerund'
p8970
(lp8971
sg1924
(lp8972
g1922
ag1920
ag1923
ag1751
ag1449
aS'rinser'
p8973
ag1925
asg8194
(lp8974
g1878
ag1879
asg2796
(lp8975
g1923
ag1615
ag5018
ag2061
ag5020
ag343
asS'gently'
p8976
(lp8977
S'gentle'
p8978
ag4876
asg5875
(lp8979
g1113
ag5010
ag5026
asg4526
(lp8980
g1120
ag6261
ag4478
asg8978
(lp8981
g8976
asg1854
(lp8982
g1852
asg6298
(lp8983
g611
ag2625
ag614
ag9
asg6947
(lp8984
g6928
asg5026
(lp8985
g6024
ag4982
ag5025
ag5875
asg3288
(lp8986
g2611
asg2035
(lp8987
g1723
ag429
ag2033
asg1878
(lp8988
g8194
ag1876
asg2586
(lp8989
g2584
asg1449
(lp8990
g1448
ag1227
ag1924
aS'rinsed'
p8991
ag1450
ag1446
ag1451
asg2900
(lp8992
g2898
asS'afraid'
p8993
(lp8994
sS'pupils'
p8995
(lp8996
sg5293
(lp8997
g779
ag8110
ag5294
ag1536
asg8251
(lp8998
g5363
asg2788
(lp8999
g4801
ag2786
ag2790
ag2791
asg205
(lp9000
g203
ag6565
asg113
(lp9001
g110
ag112
ag2553
asS'agency'
p9002
(lp9003
sg6522
(lp9004
g6520
asS'faders'
p9005
(lp9006
sg6711
(lp9007
g7444
ag6709
asg8110
(lp9008
g2031
ag5293
ag8148
ag3351
asS'civics'
p9009
(lp9010
sS'analog'
p9011
(lp9012
sS'ashore'
p9013
(lp9014
sg1154
(lp9015
g1150
asg7444
(lp9016
g6711
ag7442
asS'divert'
p9017
(lp9018
g2933
ag1250
asS'staple'
p9019
(lp9020
g6413
asg7555
(lp9021
g4099
asg2933
(lp9022
g3508
ag9017
ag2931
ag2934
ag2935
asg8086
(lp9023
g7068
asg2836
(lp9024
g2834
ag2839
ag2840
asg7037
(lp9025
g7035
asS'patchy'
p9026
(lp9027
sS'posits'
p9028
(lp9029
sg8011
(lp9030
g8012
ag8009
asg3873
(lp9031
g3871
asS'combat'
p9032
(lp9033
sS'deploy'
p9034
(lp9035
sg2511
(lp9036
g319
ag6154
ag2512
asg4317
(lp9037
g704
ag4315
asg727
(lp9038
g3370
ag728
ag729
ag725
ag731
asS'siphon'
p9039
(lp9040
sg6465
(lp9041
g6464
ag4751
ag2747
asS'mimics'
p9042
(lp9043
sS'offend'
p9044
(lp9045
sS'cipher'
p9046
(lp9047
sS'demise'
p9048
(lp9049
S'devise'
p9050
asS'satire'
p9051
(lp9052
sS'device'
p9053
(lp9054
g9050
asg3856
(lp9055
g3853
ag1848
asg3370
(lp9056
g727
ag3368
asg2116
(lp9057
g1688
ag8148
ag2074
ag3781
ag933
asg2613
(lp9058
g2608
ag2611
ag2612
asS'afresh'
p9059
(lp9060
sS'stereo'
p9061
(lp9062
sg7414
(lp9063
g5218
ag1114
asg956
(lp9064
g5820
ag5100
ag821
ag37
ag888
ag957
asS'shroud'
p9065
(lp9066
sg5806
(lp9067
g1533
ag5927
asS'ensues'
p9068
(lp9069
S'ensued'
p9070
asS'locust'
p9071
(lp9072
sg1152
(lp9073
g1670
aS'bundle'
p9074
ag1150
asg37
(lp9075
g758
ag3144
ag3512
ag815
ag956
ag38
ag34
ag39
ag40
asg1568
(lp9076
g270
asS'capita'
p9077
(lp9078
sg2392
(lp9079
g2390
asS'absurd'
p9080
(lp9081
sS'fiasco'
p9082
(lp9083
sg2919
(lp9084
g2917
asS'ampere'
p9085
(lp9086
sg9070
(lp9087
g9068
asg1039
(lp9088
g1034
ag1038
ag2814
ag939
ag4902
asS'should'
p9089
(lp9090
sS'deface'
p9091
(lp9092
sS'affair'
p9093
(lp9094
sS'feline'
p9095
(lp9096
sg2925
(lp9097
g8691
ag1222
ag2926
ag2923
ag5870
asS'kiddie'
p9098
(lp9099
sS'please'
p9100
(lp9101
sg3952
(lp9102
g3953
ag3950
asS'indoor'
p9103
(lp9104
sS'unseen'
p9105
(lp9106
sS'anyway'
p9107
(lp9108
sS'hamlet'
p9109
(lp9110
sS'nutria'
p9111
(lp9112
sg6854
(lp9113
g6852
asg8155
(lp9114
g621
ag8537
ag1363
ag1512
asg3703
(lp9115
g3701
asS'rebuke'
p9116
(lp9117
sg61
(lp9118
g2015
ag59
asg1073
(lp9119
g1071
asS'asylum'
p9120
(lp9121
sg3953
(lp9122
g3952
ag3950
asg1703
(lp9123
g1701
ag6971
asg5930
(lp9124
g5931
ag3727
asg1183
(lp9125
g460
ag1176
ag1180
ag1181
ag1182
ag1759
ag1184
asg868
(lp9126
g458
ag2480
ag2484
ag5116
ag463
ag2485
asg3967
(lp9127
g374
ag3077
asg2872
(lp9128
g2867
ag2909
ag2873
asg2179
(lp9129
g2176
aS'spanks'
p9130
ag411
asg5042
(lp9131
g5040
aS'micron'
p9132
asg344
(lp9133
g1942
ag1944
ag333
ag343
ag345
asg7199
(lp9134
g5926
asS'pickup'
p9135
(lp9136
sg3492
(lp9137
g212
ag3491
ag3466
ag3468
ag3493
ag6790
ag216
ag715
asg2909
(lp9138
g2870
ag2872
ag2910
ag2833
asg3049
(lp9139
g5382
ag116
asg9132
(lp9140
g5042
asg5976
(lp9141
g5787
asg2964
(lp9142
g1222
ag2963
ag2927
ag1455
ag275
ag5888
asg5116
(lp9143
g5114
ag5115
ag868
ag4023
ag11
ag4135
asg3468
(lp9144
g3464
ag3492
ag2961
ag835
asS'girlie'
p9145
(lp9146
sg6296
(lp9147
g1203
asg3928
(lp9148
g3926
ag3417
asg1549
(lp9149
g1546
asg7850
(lp9150
g7848
asg7865
(lp9151
g7863
asg4801
(lp9152
g2487
ag2788
ag1427
ag4062
ag4902
asg4422
(lp9153
g4420
ag4423
asS'damsel'
p9154
(lp9155
sg1427
(lp9156
g4801
ag1425
asS'arcing'
p9157
(lp9158
g5699
asS'accrue'
p9159
(lp9160
sS'schism'
p9161
(lp9162
sS'canary'
p9163
(lp9164
sg5700
(lp9165
g3819
ag1028
ag4169
ag238
ag1347
asg6385
(lp9166
g6383
asg2678
(lp9167
g2673
ag2676
ag2677
ag2679
asg2704
(lp9168
g2701
ag4866
ag2705
ag4847
asS'ghetto'
p9169
(lp9170
sS'atolls'
p9171
(lp9172
sg78
(lp9173
g77
ag75
asg2813
(lp9174
g711
ag833
ag2814
ag2768
asg2672
(lp9175
g2670
asg4497
(lp9176
g4496
ag4494
asS'cached'
p9177
(lp9178
g8622
ag2030
asS'cycled'
p9179
(lp9180
S'cycles'
p9181
asS'ordain'
p9182
(lp9183
sS'summon'
p9184
(lp9185
sg4496
(lp9186
g1031
ag4494
ag4497
asg5012
(lp9187
g4372
ag1812
asg3108
(lp9188
g627
asg9181
(lp9189
g9179
asg514
(lp9190
g512
ag510
ag1012
aS'nickel'
p9191
ag515
ag516
ag517
ag518
asg8622
(lp9192
g9177
ag778
asS'buzzer'
p9193
(lp9194
S'buzzed'
p9195
aS'buzzes'
p9196
asg9196
(lp9197
g9195
ag9193
asg2333
(lp9198
g1147
ag2334
asS'untrue'
p9199
(lp9200
sg2334
(lp9201
g1147
ag2333
asg4632
(lp9202
g4629
ag4631
asS'exists'
p9203
(lp9204
sg1687
(lp9205
g3713
ag2029
ag4159
ag1245
ag2010
ag1360
ag621
ag1688
ag1689
ag1685
ag292
ag1694
ag1578
asg917
(lp9206
g3151
ag3152
ag916
ag913
ag329
ag515
ag5510
ag3149
asg6638
(lp9207
g6636
ag6639
asg861
(lp9208
g848
ag859
ag860
ag2164
ag2161
ag2165
asS'groggy'
p9209
(lp9210
sg4869
(lp9211
g4867
asS'canine'
p9212
(lp9213
sg5590
(lp9214
g5584
aS'frieze'
p9215
asg1245
(lp9216
g777
ag668
ag1687
ag1237
ag970
ag1246
ag1247
asS'pidgin'
p9217
(lp9218
sS'legacy'
p9219
(lp9220
sS'merits'
p9221
(lp9222
sg1950
(lp9223
g431
asg9195
(lp9224
g9193
ag9196
asg169
(lp9225
g1723
ag1724
ag1725
ag1726
ag1721
ag165
asg920
(lp9226
g915
ag913
ag3337
ag7375
asS'audits'
p9227
(lp9228
sg3898
(lp9229
g3893
ag3897
ag4965
asS'dyadic'
p9230
(lp9231
sg916
(lp9232
g3334
ag3335
ag819
ag917
ag913
ag289
ag2622
ag1013
ag3337
ag1014
asS'awaits'
p9233
(lp9234
sg4625
(lp9235
g5972
ag4621
aS'closet'
p9236
ag4622
asg4621
(lp9237
g4620
ag5972
ag4625
ag9236
ag4618
asg5075
(lp9238
g1650
ag1651
ag5074
asg5074
(lp9239
g1649
ag1651
ag5075
asS'tempts'
p9240
(lp9241
sg6866
(lp9242
g6864
asg9236
(lp9243
g5972
ag4625
ag4621
asS'record'
p9244
(lp9245
sS'nebula'
p9246
(lp9247
sg2247
(lp9248
g2246
ag4047
ag2244
asg5442
(lp9249
g5440
asg7447
(lp9250
g5363
ag7445
asS'genius'
p9251
(lp9252
sg6387
(lp9253
g669
ag4282
ag2689
aS'tossed'
p9254
asg8465
(lp9255
g5287
asg5972
(lp9256
g5970
ag4625
ag4621
ag9236
asg7351
(lp9257
g3402
ag7349
asS'piston'
p9258
(lp9259
g748
asg8376
(lp9260
S'angler'
p9261
ag8362
asg748
(lp9262
g746
ag9258
asg3402
(lp9263
g7351
ag3400
ag3403
asg7325
(lp9264
g2965
ag2188
asS'rinses'
p9265
(lp9266
g8991
ag8973
asg8973
(lp9267
g1924
ag8991
ag9265
asg8819
(lp9268
S'solely'
p9269
ag3841
asg532
(lp9270
g531
ag3862
ag1836
ag411
ag525
asg5133
(lp9271
g4484
ag5132
asS'eschew'
p9272
(lp9273
sg7855
(lp9274
g7853
asS'scolds'
p9275
(lp9276
sS'bemoan'
p9277
(lp9278
sg1836
(lp9279
g3618
ag11
ag2374
ag409
ag3849
ag1834
ag1835
ag532
ag411
ag1832
ag524
asg8991
(lp9280
g1449
ag8973
ag9265
asg7570
(lp9281
g939
asg8201
(lp9282
g8199
asg2412
(lp9283
g2410
ag1433
ag2411
ag2373
ag3259
ag407
ag2376
asg103
(lp9284
g101
asS'vanish'
p9285
(lp9286
S'banish'
p9287
asS'stucco'
p9288
(lp9289
sg243
(lp9290
g241
ag242
ag4332
ag4136
ag1364
ag934
ag239
asS'renews'
p9291
(lp9292
sg1767
(lp9293
g573
ag8287
ag621
ag1283
ag5137
ag5138
ag1733
asS'limits'
p9294
(lp9295
sg6027
(lp9296
g2036
aS'careen'
p9297
ag326
ag6025
asS'freely'
p9298
(lp9299
sg194
(lp9300
g184
ag190
ag191
ag192
ag193
ag1028
ag1790
ag7412
ag195
asg586
(lp9301
g583
ag584
ag581
asg5305
(lp9302
g6446
ag1913
asS'kosher'
p9303
(lp9304
sS'carols'
p9305
(lp9306
sg621
(lp9307
g1687
ag1360
ag2011
ag619
ag616
ag1767
ag1769
ag8537
ag8155
asg9297
(lp9308
g6027
asS'signet'
p9309
(lp9310
g6780
ag7225
asg3259
(lp9311
g3256
ag2373
ag2412
ag531
asg336
(lp9312
g335
ag337
ag338
ag339
ag333
asS'canopy'
p9313
(lp9314
sg77
(lp9315
g1519
ag75
ag78
asg2686
(lp9316
g668
ag3057
ag783
ag1692
ag2687
ag2682
ag2689
ag2418
asS'jersey'
p9317
(lp9318
sS'chutes'
p9319
(lp9320
sS'revert'
p9321
(lp9322
g5588
asg4595
(lp9323
g4593
asg183
(lp9324
g181
ag187
asS'hyphen'
p9325
(lp9326
sg4876
(lp9327
g4874
ag8976
ag6528
asg346
(lp9328
g429
ag430
ag431
ag340
ag333
ag427
asS'revamp'
p9329
(lp9330
sS'typify'
p9331
(lp9332
sg6139
(lp9333
g6140
ag6141
ag3719
asg6267
(lp9334
g6245
asg5618
(lp9335
g482
ag1970
ag1971
ag5619
asS'byways'
p9336
(lp9337
sg371
(lp9338
g369
asg857
(lp9339
g848
asS'cohere'
p9340
(lp9341
sS'walnut'
p9342
(lp9343
sg187
(lp9344
g184
ag186
ag183
ag188
ag3741
ag700
ag7186
asg5956
(lp9345
g5954
ag5957
asS'equips'
p9346
(lp9347
sS'inhale'
p9348
(lp9349
sS'keying'
p9350
(lp9351
sS'second'
p9352
(lp9353
sg3993
(lp9354
g3991
ag6070
asg2831
(lp9355
g6317
ag4542
ag2828
asS'rapids'
p9356
(lp9357
sg2302
(lp9358
g5891
ag5889
ag3200
ag2300
asg4585
(lp9359
S'chants'
p9360
ag4132
asg5011
(lp9361
g5010
ag5095
ag1812
asS'offers'
p9362
(lp9363
sS'slowly'
p9364
(lp9365
sS'endows'
p9366
(lp9367
sg5211
(lp9368
g5209
ag5212
asg5957
(lp9369
g5956
ag5954
asg5891
(lp9370
g2302
ag5889
asS'marmot'
p9371
(lp9372
sg146
(lp9373
g770
ag143
asg885
(lp9374
g883
ag5356
asg4337
(lp9375
g6693
ag4335
ag6171
asS'angled'
p9376
(lp9377
g9261
asS'ariser'
p9378
(lp9379
S'arisen'
p9380
ag84
asg84
(lp9381
g9380
ag9378
ag82
asg9191
(lp9382
g1012
ag514
asg3662
(lp9383
g3684
ag1885
ag3660
ag2735
asS'league'
p9384
(lp9385
sg5945
(lp9386
g5912
ag6127
ag1740
asS'cruddy'
p9387
(lp9388
sg1012
(lp9389
g513
ag820
ag9191
ag514
ag1013
ag1010
ag1017
asS'crappy'
p9390
(lp9391
sg912
(lp9392
g908
ag4744
asg124
(lp9393
g122
asS'pilfer'
p9394
(lp9395
sS'maroon'
p9396
(lp9397
sg9261
(lp9398
g9376
ag8376
asS'recoil'
p9399
(lp9400
sg485
(lp9401
g7134
ag483
asg8310
(lp9402
g8308
asg5872
(lp9403
g2926
ag5870
asg9380
(lp9404
g9378
ag84
asg9287
(lp9405
g9285
asS'debtor'
p9406
(lp9407
sg8351
(lp9408
g8349
asS'splits'
p9409
(lp9410
sg7725
(lp9411
g4997
asg2648
(lp9412
g2823
ag1057
ag2827
ag364
ag365
ag2853
ag3578
ag2443
ag1340
asg6359
(lp9413
g6357
asg1962
(lp9414
g2036
ag4542
ag1960
ag7508
ag2830
ag2828
asg6442
(lp9415
g6440
asS'cursor'
p9416
(lp9417
sg3550
(lp9418
g2041
ag3548
ag3549
asS'lichen'
p9419
(lp9420
sg701
(lp9421
g698
ag190
ag699
ag700
ag696
ag48
ag3496
ag1273
ag1601
ag1046
asg5906
(lp9422
g5904
asS'rename'
p9423
(lp9424
sg2040
(lp9425
g3545
ag2038
asg3344
(lp9426
g3342
ag6342
ag7878
asS'dieter'
p9427
(lp9428
sg512
(lp9429
g3151
ag510
ag514
ag515
ag516
ag517
ag518
asS'almost'
p9430
(lp9431
sS'neuron'
p9432
(lp9433
sg6446
(lp9434
g865
ag6444
ag5305
asg5319
(lp9435
g5317
ag3735
ag2488
asS'palely'
p9436
(lp9437
sg1412
(lp9438
g3540
ag630
asg8260
(lp9439
g8258
asS'cohort'
p9440
(lp9441
sg583
(lp9442
g1367
ag584
ag581
ag586
asg8319
(lp9443
g8317
asg9269
(lp9444
g8819
asg4291
(lp9445
g731
ag3373
ag4289
asg6966
(lp9446
g6964
asS'autism'
p9447
(lp9448
sS'member'
p9449
(lp9450
sg9360
(lp9451
g4585
asg7920
(lp9452
g7918
asg5552
(lp9453
g2839
ag5592
ag1355
ag1327
asg2983
(lp9454
g2982
ag4150
ag2984
ag2980
ag2985
asg1545
(lp9455
g1543
asS'finite'
p9456
(lp9457
sg3373
(lp9458
g3368
ag3372
ag4291
ag4292
asg4055
(lp9459
g1904
ag1906
asg8512
(lp9460
g8510
asg7893
(lp9461
g1697
asg3901
(lp9462
g3899
asS'elbows'
p9463
(lp9464
sg5403
(lp9465
g3233
ag3600
ag2251
ag1983
asg6545
(lp9466
g3759
asg7239
(lp9467
g7237
asS'sequel'
p9468
(lp9469
sg5642
(lp9470
g5640
asg164
(lp9471
g162
asg1528
(lp9472
g1525
ag866
asg1355
(lp9473
g2865
ag4028
ag5115
ag5552
ag1326
asg8250
(lp9474
g5363
asg7759
(lp9475
g7758
ag7756
ag3602
asg7573
(lp9476
g7571
asg4478
(lp9477
g332
ag4526
ag3864
asg8563
(lp9478
g8561
asg6176
(lp9479
g8136
ag6174
asg7681
(lp9480
g2435
asg3974
(lp9481
g1875
ag3461
ag3972
asg8012
(lp9482
g8011
ag8009
asg1772
(lp9483
g1283
ag1771
ag1180
ag1773
ag1774
asS'center'
p9484
(lp9485
sS'neural'
p9486
(lp9487
sg2580
(lp9488
g2577
ag2579
ag4626
ag6222
ag7417
ag2581
ag1867
asg477
(lp9489
g2176
ag474
ag2385
ag1814
ag2386
ag8482
asg6073
(lp9490
g6070
ag6071
ag6072
ag4329
asg1223
(lp9491
g1220
ag1224
ag1225
ag6560
ag1466
ag5438
ag5436
asg879
(lp9492
g875
ag877
ag878
ag967
ag1760
ag880
asS'bluest'
p9493
(lp9494
sg7558
(lp9495
g7556
asg2581
(lp9496
g2577
ag2579
ag2580
ag6223
ag1867
asS'amends'
p9497
(lp9498
sg2747
(lp9499
g6465
ag2745
ag2743
asg121
(lp9500
g119
ag120
ag117
asg180
(lp9501
g178
asg7201
(lp9502
g1273
asS'muscle'
p9503
(lp9504
sS'soviet'
p9505
(lp9506
sg6222
(lp9507
g6220
ag7331
ag2580
ag6223
ag1846
asg2195
(lp9508
g2192
asg3092
(lp9509
g821
ag3051
ag824
ag7375
asS'hauler'
p9510
(lp9511
g4363
asg3756
(lp9512
g3748
ag3755
ag7100
ag1912
ag1746
asS'deltas'
p9513
(lp9514
sg5699
(lp9515
g3819
ag9157
asg2633
(lp9516
g2631
ag6499
asg7375
(lp9517
g7690
ag919
ag920
ag824
ag3092
ag7711
asS'maggot'
p9518
(lp9519
sg6060
(lp9520
g6680
ag6057
asg3934
(lp9521
g7454
ag3932
asg3381
(lp9522
g2772
ag3379
asg6941
(lp9523
g6939
asS'clinic'
p9524
(lp9525
sS'ablest'
p9526
(lp9527
sg702
(lp9528
g3291
ag696
ag1652
ag1655
ag1052
ag1656
ag1657
ag1276
ag3294
asS'digram'
p9529
(lp9530
sg4363
(lp9531
g358
ag9510
asS'laurel'
p9532
(lp9533
sg904
(lp9534
g965
ag902
ag907
asg476
(lp9535
g5236
ag5239
ag5240
ag2772
ag3382
ag474
asS'azalea'
p9536
(lp9537
sg1808
(lp9538
g1807
ag799
ag206
ag1804
asg5708
(lp9539
g5706
asg599
(lp9540
g596
ag600
asg5298
(lp9541
g5296
asg5888
(lp9542
g2964
ag1455
ag275
ag5886
ag650
ag5990
ag5991
asg375
(lp9543
g373
ag374
ag1744
ag312
ag378
ag379
asS'arrest'
p9544
(lp9545
sS'impale'
p9546
(lp9547
sS'exempt'
p9548
(lp9549
sg6413
(lp9550
g6411
ag9019
asg5990
(lp9551
g651
ag5888
ag5988
asg744
(lp9552
g741
ag742
ag739
ag743
ag6007
asS'throne'
p9553
(lp9554
S'throng'
p9555
asg2718
(lp9556
g3004
ag3007
ag3008
ag3009
ag235
ag1045
ag2719
ag1348
asS'ashman'
p9557
(lp9558
sg9215
(lp9559
g5590
asg4187
(lp9560
g4274
ag2624
ag818
ag822
ag3028
ag1016
asS'worlds'
p9561
(lp9562
sg3613
(lp9563
g1713
asg3936
(lp9564
g3622
ag3932
asS'gopher'
p9565
(lp9566
sg1299
(lp9567
g1298
ag1296
aS'redden'
p9568
asg1532
(lp9569
g81
ag4502
asS'burden'
p9570
(lp9571
sg3196
(lp9572
g3194
ag5160
asg323
(lp9573
g1374
ag2548
ag6325
ag321
asg2626
(lp9574
g2625
ag2622
ag614
ag6043
ag6041
asg9555
(lp9575
g9553
asg6678
(lp9576
g451
asS'review'
p9577
(lp9578
sg5353
(lp9579
g5792
ag3718
asg5846
(lp9580
S'chains'
p9581
ag5844
asS'starry'
p9582
(lp9583
sS'porous'
p9584
(lp9585
sg8820
(lp9586
g3841
asg1790
(lp9587
g1024
ag2287
ag194
ag1028
ag7412
ag1788
asS'alkali'
p9588
(lp9589
sg4378
(lp9590
g4376
asg4980
(lp9591
g4978
ag6095
asS'salons'
p9592
(lp9593
sS'bunion'
p9594
(lp9595
sS'setups'
p9596
(lp9597
sg1250
(lp9598
g1248
ag9017
asg1760
(lp9599
g1282
ag1179
ag1757
ag1758
ag1464
ag1759
ag1870
ag879
ag3524
asg6524
(lp9600
g5465
asg4323
(lp9601
g3299
asg2356
(lp9602
g4238
ag2354
asS'exceed'
p9603
(lp9604
sS'shabby'
p9605
(lp9606
sS'propel'
p9607
(lp9608
g3557
asg1741
(lp9609
g1736
ag1734
ag1737
ag1738
ag1739
ag1740
asg3793
(lp9610
g3790
asS'arrows'
p9611
(lp9612
sS'portly'
p9613
(lp9614
g8746
asg4360
(lp9615
g4358
asS'holies'
p9616
(lp9617
sg8057
(lp9618
g3541
ag3542
ag6945
asS'ideals'
p9619
(lp9620
sS'vessel'
p9621
(lp9622
sS'growth'
p9623
(lp9624
sg718
(lp9625
g716
ag7397
ag719
asg4993
(lp9626
S'convex'
p9627
ag4991
asg9627
(lp9628
g4993
asg3557
(lp9629
g9607
ag2381
asS'ablaze'
p9630
(lp9631
S'ablate'
p9632
asg3535
(lp9633
S'expire'
p9634
ag3533
asS'proofs'
p9635
(lp9636
sg3749
(lp9637
g1097
asg8946
(lp9638
g6682
asg5813
(lp9639
g5812
ag5810
ag1710
ag8140
ag5814
ag4972
asS'bantam'
p9640
(lp9641
sg5051
(lp9642
g5049
asg1730
(lp9643
g3724
ag1691
ag1241
asS'legume'
p9644
(lp9645
sg1279
(lp9646
g3725
ag1277
asS'corpse'
p9647
(lp9648
sg4939
(lp9649
g4938
ag4936
ag4940
ag4941
asg618
(lp9650
g669
ag616
ag9254
asg3891
(lp9651
g3889
asS'cradle'
p9652
(lp9653
sg1691
(lp9654
g4159
ag3878
ag1690
ag1730
ag1692
ag1685
ag4345
asg1710
(lp9655
g4970
ag4971
ag8140
ag5813
ag1706
ag4968
asg4314
(lp9656
g4313
ag4292
asg669
(lp9657
g668
ag618
ag620
ag4282
ag2689
ag6387
asg2873
(lp9658
g2867
ag2872
ag4423
ag2833
ag5696
ag5648
asg9581
(lp9659
g5846
asg1374
(lp9660
g1527
ag589
ag569
ag1372
ag1639
ag323
ag1525
asg3243
(lp9661
g3244
ag3241
asg3544
(lp9662
g3545
ag3546
ag2041
ag3547
asg8027
(lp9663
g2612
asg1031
(lp9664
g4496
ag1029
asS'idlers'
p9665
(lp9666
sg2985
(lp9667
g2982
ag2983
ag2984
ag2980
asS'goatee'
p9668
(lp9669
sS'choker'
p9670
(lp9671
g8181
ag6585
asg6585
(lp9672
g8181
ag9670
ag1064
asg5750
(lp9673
g5736
ag5749
asg3
(lp9674
g1
ag8845
asg9634
(lp9675
g3535
asg1231
(lp9676
g8283
ag1228
asg3230
(lp9677
g3228
asS'measle'
p9678
(lp9679
sg8181
(lp9680
g9670
ag6585
ag3144
asg4549
(lp9681
g4547
asg5856
(lp9682
g5853
asg4782
(lp9683
g4780
ag4783
asg1345
(lp9684
g2995
ag1346
ag1341
ag4165
ag4168
ag4169
asg455
(lp9685
g3685
ag456
ag457
ag458
ag418
ag459
ag5445
asg2679
(lp9686
g2673
ag2676
ag2677
ag2678
ag4038
asg3945
(lp9687
g1732
ag1120
ag1759
asS'redraw'
p9688
(lp9689
sS'actual'
p9690
(lp9691
sg7322
(lp9692
g7320
asg1923
(lp9693
g1922
ag1920
ag2796
ag5988
ag1924
ag1925
asS'column'
p9694
(lp9695
sg3417
(lp9696
g3926
ag3928
ag3415
asg2961
(lp9697
g3468
ag828
ag2959
ag2960
ag216
ag1328
ag835
asg7706
(lp9698
g7704
ag6394
asg5282
(lp9699
g5280
asg6141
(lp9700
g6139
ag6140
ag3719
asg5588
(lp9701
g9321
ag5573
asg691
(lp9702
g714
ag689
ag687
asS'camels'
p9703
(lp9704
sg825
(lp9705
g817
ag818
ag815
ag823
ag824
ag5358
ag7711
ag3028
asg3685
(lp9706
g3684
ag455
ag1696
ag1399
ag3491
ag591
ag2625
asg365
(lp9707
g357
ag358
ag359
ag360
ag361
ag362
ag355
ag4968
ag2648
ag366
asS'sortie'
p9708
(lp9709
sg1542
(lp9710
g1540
asS'tongue'
p9711
(lp9712
sS'upward'
p9713
(lp9714
sS'encamp'
p9715
(lp9716
sg6126
(lp9717
g6124
ag7379
asg502
(lp9718
g9050
ag501
ag498
asg523
(lp9719
g1433
ag408
ag522
ag3483
ag412
ag527
ag528
asg4379
(lp9720
g4376
asS'cruder'
p9721
(lp9722
sg751
(lp9723
g749
asg817
(lp9724
g3144
ag2052
ag818
ag815
ag823
ag824
ag825
asg1711
(lp9725
g1706
ag3844
asS'primal'
p9726
(lp9727
sg6132
(lp9728
g6130
asS'squeak'
p9729
(lp9730
S'squeal'
p9731
asg524
(lp9732
g3618
ag11
ag2374
ag409
ag3849
ag1836
ag3481
ag3483
ag525
ag412
ag14
ag2377
ag1837
ag1880
asg2094
(lp9733
g2091
ag2489
asg7877
(lp9734
g7875
asS'esteem'
p9735
(lp9736
sS'female'
p9737
(lp9738
sS'lawful'
p9739
(lp9740
sS'negate'
p9741
(lp9742
sS'owners'
p9743
(lp9744
sg7012
(lp9745
g5287
ag7009
ag7011
asg7837
(lp9746
g1764
asg403
(lp9747
g2003
ag1110
ag1949
ag398
ag5436
ag1641
ag2230
ag340
asg479
(lp9748
g474
ag478
ag2386
ag2732
ag3553
ag3487
asS'gerbil'
p9749
(lp9750
sS'rivals'
p9751
(lp9752
sg3753
(lp9753
g3286
ag2431
asg5077
(lp9754
g1209
asS'caviar'
p9755
(lp9756
sg2327
(lp9757
g2328
ag2329
ag2182
asg4205
(lp9758
g4202
ag5794
ag5796
ag5556
asg145
(lp9759
g143
asg1539
(lp9760
g670
ag780
ag1509
ag1538
ag1512
ag396
asg396
(lp9761
g2516
ag2546
ag389
ag1512
ag1539
asS'avowed'
p9762
(lp9763
sg9632
(lp9764
g9630
asS'quanta'
p9765
(lp9766
sg7025
(lp9767
g7023
asg3627
(lp9768
g3625
asg6167
(lp9769
g1582
asg9731
(lp9770
g9729
asg235
(lp9771
g3004
ag3007
ag3008
ag3009
ag229
ag236
ag2718
asg1222
(lp9772
g2925
ag1220
ag2963
ag2964
ag2927
ag1975
ag1973
ag1976
ag1977
asg5784
(lp9773
g2488
asg8540
(lp9774
g8538
asS'sugars'
p9775
(lp9776
sS'catsup'
p9777
(lp9778
sS'unwrap'
p9779
(lp9780
sS'inroad'
p9781
(lp9782
sg6963
(lp9783
g6981
ag2422
asg378
(lp9784
g373
ag374
ag375
ag312
ag1746
ag1088
ag1499
ag2443
ag379
asg758
(lp9785
g5820
ag756
ag759
ag3144
ag3512
ag37
asg3541
(lp9786
g3538
ag3540
ag8057
asS'escrow'
p9787
(lp9788
sS'volume'
p9789
(lp9790
sg4345
(lp9791
g4159
ag1691
ag1014
ag7102
ag1694
asg3602
(lp9792
g3600
ag3598
ag7759
asg360
(lp9793
g357
ag358
ag359
ag2818
ag3651
ag361
ag362
ag355
ag365
ag366
asg3382
(lp9794
g476
ag2772
ag2487
ag3379
ag5984
ag3383
ag2773
asg682
(lp9795
g659
asg1428
(lp9796
g1425
asS'assail'
p9797
(lp9798
sS'rectum'
p9799
(lp9800
sS'signal'
p9801
(lp9802
sg6981
(lp9803
g6963
ag2564
asg3091
(lp9804
g3051
ag5510
ag3153
asg6725
(lp9805
g6722
ag2358
ag2723
ag6726
asg8474
(lp9806
g4220
asg4457
(lp9807
g1863
ag4455
asg9254
(lp9808
g618
ag6387
asg1757
(lp9809
g1282
ag1179
ag878
ag3521
ag1758
ag1464
ag1759
ag1760
asg833
(lp9810
g711
ag2813
ag834
ag714
asg3608
(lp9811
g3607
ag536
asS'vassal'
p9812
(lp9813
sg870
(lp9814
g463
ag869
asS'grieve'
p9815
(lp9816
sg6780
(lp9817
g6778
ag7225
ag9309
ag2097
asg8405
(lp9818
g579
asS'godson'
p9819
(lp9820
sg711
(lp9821
g833
ag2813
ag8728
ag712
ag713
ag709
asS'exerts'
p9822
(lp9823
sS'ruling'
p9824
(lp9825
sS'wagons'
p9826
(lp9827
sg1975
(lp9828
g1222
ag6173
ag1973
ag1976
ag1977
asg7225
(lp9829
g6780
ag9309
ag1944
asS'static'
p9830
(lp9831
sg3278
(lp9832
g3277
ag3136
ag1266
ag2526
ag3279
asg7409
(lp9833
g7407
asg6791
(lp9834
g715
asS'cruxes'
p9835
(lp9836
sS'bewail'
p9837
(lp9838
sg7180
(lp9839
g7178
asg9050
(lp9840
g9048
ag9053
ag502
asg328
(lp9841
g325
ag326
ag327
ag3738
ag2910
ag291
asS'domino'
p9842
(lp9843
sS'circus'
p9844
(lp9845
sg2685
(lp9846
g2684
ag6506
aS'kisser'
p9847
ag2682
asg9847
(lp9848
g6506
ag2685
asS'dearth'
p9849
(lp9850
sg1193
(lp9851
g1192
ag1190
asg9130
(lp9852
g2179
asS'erring'
p9853
(lp9854
sg2689
(lp9855
g669
ag4282
ag2686
ag2687
ag2682
ag1135
ag6387
asg8746
(lp9856
g9613
ag2479
asS'sizzle'
p9857
(lp9858
S'fizzle'
p9859
asg6506
(lp9860
g6478
ag9847
ag2685
ag2688
asS'arsine'
p9861
(lp9862
sS'campus'
p9863
(lp9864
sg5095
(lp9865
g5025
ag5011
ag1811
asg1529
(lp9866
g1885
ag1525
ag9568
ag1530
ag8242
asS'poplin'
p9867
(lp9868
sS'mutual'
p9869
(lp9870
sg7342
(lp9871
g7341
ag5277
asS'scowls'
p9872
(lp9873
sg1362
(lp9874
g2491
ag1358
ag1481
ag5866
asg7799
(lp9875
g4007
asg8623
(lp9876
g2030
ag391
ag778
asS'unused'
p9877
(lp9878
sg133
(lp9879
g3669
ag1091
ag131
asg391
(lp9880
g2030
ag778
ag8623
ag1235
ag392
ag393
ag389
ag397
asg1091
(lp9881
g133
ag134
asg2328
(lp9882
g2327
ag2329
ag2182
asg2606
(lp9883
g7996
ag2604
asS'crummy'
p9884
(lp9885
sg7134
(lp9886
g7132
ag485
asg6700
(lp9887
g6697
asg2030
(lp9888
g2029
ag9177
ag391
ag778
ag8623
ag2031
ag1508
ag2032
ag1690
ag1535
asg9859
(lp9889
g9857
asg5964
(lp9890
g5961
asg9568
(lp9891
g1529
ag1299
asg2730
(lp9892
g5239
ag2772
ag5785
ag2731
ag632
asg1267
(lp9893
g980
asg3351
(lp9894
g8110
ag8148
ag1535
ag5295
ag1536
asg2225
(lp9895
g1725
ag430
asg1043
(lp9896
g1042
ag1817
ag1026
ag1820
ag1821
ag1040
asg8757
(lp9897
g4977
asg1334
(lp9898
g1333
ag1331
ag2313
asg3563
(lp9899
g3561
asg704
(lp9900
g696
ag703
ag52
ag1601
ag1602
ag4317
asS'vitals'
p9901
(lp9902
sg9074
(lp9903
g1152
asS'risked'
p9904
(lp9905
sg3996
(lp9906
g3994
asg3607
(lp9907
g536
ag3608
asS'booboo'
p9908
(lp9909
sS'pacify'
p9910
(lp9911
sg3600
(lp9912
g3233
ag5403
ag3598
ag3602
asg4328
(lp9913
g4326
ag5111
asg1243
(lp9914
g1235
ag1239
ag1240
ag1241
ag394
ag1242
asS'matrix'
p9915
(lp9916
sg719
(lp9917
g716
ag718
asS'silica'
p9918
(lp9919
sS'sphinx'
p9920
(lp9921
sg1020
(lp9922
g1018
ag6127
ag1740
asg2463
(lp9923
g6767
ag2461
asS'chalks'
p9924
(lp9925
sg1689
(lp9926
g1687
ag1688
ag2032
ag3781
ag1685
ag292
ag1694
ag1578
asS'eddies'
p9927
(lp9928
sg802
(lp9929
g800
asS'extras'
p9930
(lp9931
sg5038
(lp9932
g2343
ag4468
asg5619
(lp9933
g482
ag1970
ag5618
ag1972
asS'unmask'
p9934
(lp9935
sS'parole'
p9936
(lp9937
sg5257
(lp9938
g2199
as.